
disco lights.elf:     file format elf32-avr

Sections:
Idx Name          Size      VMA       LMA       File off  Algn
  0 .data         000000a6  00800200  00000970  000009e4  2**0
                  CONTENTS, ALLOC, LOAD, DATA
  1 .text         00000970  00000000  00000000  00000074  2**1
                  CONTENTS, ALLOC, LOAD, READONLY, CODE
  2 .comment      00000030  00000000  00000000  00000a8a  2**0
                  CONTENTS, READONLY
  3 .note.gnu.avr.deviceinfo 00000040  00000000  00000000  00000abc  2**2
                  CONTENTS, READONLY
  4 .debug_aranges 00000190  00000000  00000000  00000afc  2**0
                  CONTENTS, READONLY, DEBUGGING
  5 .debug_info   00001f7d  00000000  00000000  00000c8c  2**0
                  CONTENTS, READONLY, DEBUGGING
  6 .debug_abbrev 00000e52  00000000  00000000  00002c09  2**0
                  CONTENTS, READONLY, DEBUGGING
  7 .debug_line   00000fb3  00000000  00000000  00003a5b  2**0
                  CONTENTS, READONLY, DEBUGGING
  8 .debug_frame  00000690  00000000  00000000  00004a10  2**2
                  CONTENTS, READONLY, DEBUGGING
  9 .debug_str    00000c47  00000000  00000000  000050a0  2**0
                  CONTENTS, READONLY, DEBUGGING
 10 .debug_loc    00001fa2  00000000  00000000  00005ce7  2**0
                  CONTENTS, READONLY, DEBUGGING
 11 .debug_ranges 00000180  00000000  00000000  00007c89  2**0
                  CONTENTS, READONLY, DEBUGGING

Disassembly of section .text:

00000000 <__vectors>:
   0:	71 c0       	rjmp	.+226    	; 0xe4 <__ctors_end>
   2:	00 00       	nop
   4:	8e c0       	rjmp	.+284    	; 0x122 <__bad_interrupt>
   6:	00 00       	nop
   8:	8c c0       	rjmp	.+280    	; 0x122 <__bad_interrupt>
   a:	00 00       	nop
   c:	8a c0       	rjmp	.+276    	; 0x122 <__bad_interrupt>
   e:	00 00       	nop
  10:	88 c0       	rjmp	.+272    	; 0x122 <__bad_interrupt>
  12:	00 00       	nop
  14:	86 c0       	rjmp	.+268    	; 0x122 <__bad_interrupt>
  16:	00 00       	nop
  18:	84 c0       	rjmp	.+264    	; 0x122 <__bad_interrupt>
  1a:	00 00       	nop
  1c:	82 c0       	rjmp	.+260    	; 0x122 <__bad_interrupt>
  1e:	00 00       	nop
  20:	80 c0       	rjmp	.+256    	; 0x122 <__bad_interrupt>
  22:	00 00       	nop
  24:	7e c0       	rjmp	.+252    	; 0x122 <__bad_interrupt>
  26:	00 00       	nop
  28:	7c c0       	rjmp	.+248    	; 0x122 <__bad_interrupt>
  2a:	00 00       	nop
  2c:	7a c0       	rjmp	.+244    	; 0x122 <__bad_interrupt>
  2e:	00 00       	nop
  30:	78 c0       	rjmp	.+240    	; 0x122 <__bad_interrupt>
  32:	00 00       	nop
  34:	76 c0       	rjmp	.+236    	; 0x122 <__bad_interrupt>
  36:	00 00       	nop
  38:	74 c0       	rjmp	.+232    	; 0x122 <__bad_interrupt>
  3a:	00 00       	nop
  3c:	72 c0       	rjmp	.+228    	; 0x122 <__bad_interrupt>
  3e:	00 00       	nop
  40:	70 c0       	rjmp	.+224    	; 0x122 <__bad_interrupt>
  42:	00 00       	nop
  44:	6e c0       	rjmp	.+220    	; 0x122 <__bad_interrupt>
  46:	00 00       	nop
  48:	6c c0       	rjmp	.+216    	; 0x122 <__bad_interrupt>
  4a:	00 00       	nop
  4c:	6a c0       	rjmp	.+212    	; 0x122 <__bad_interrupt>
  4e:	00 00       	nop
  50:	68 c0       	rjmp	.+208    	; 0x122 <__bad_interrupt>
  52:	00 00       	nop
  54:	66 c0       	rjmp	.+204    	; 0x122 <__bad_interrupt>
  56:	00 00       	nop
  58:	64 c0       	rjmp	.+200    	; 0x122 <__bad_interrupt>
  5a:	00 00       	nop
  5c:	62 c0       	rjmp	.+196    	; 0x122 <__bad_interrupt>
  5e:	00 00       	nop
  60:	60 c0       	rjmp	.+192    	; 0x122 <__bad_interrupt>
  62:	00 00       	nop
  64:	5e c0       	rjmp	.+188    	; 0x122 <__bad_interrupt>
  66:	00 00       	nop
  68:	5c c0       	rjmp	.+184    	; 0x122 <__bad_interrupt>
  6a:	00 00       	nop
  6c:	5a c0       	rjmp	.+180    	; 0x122 <__bad_interrupt>
  6e:	00 00       	nop
  70:	58 c0       	rjmp	.+176    	; 0x122 <__bad_interrupt>
  72:	00 00       	nop
  74:	56 c0       	rjmp	.+172    	; 0x122 <__bad_interrupt>
  76:	00 00       	nop
  78:	54 c0       	rjmp	.+168    	; 0x122 <__bad_interrupt>
  7a:	00 00       	nop
  7c:	52 c0       	rjmp	.+164    	; 0x122 <__bad_interrupt>
  7e:	00 00       	nop
  80:	50 c0       	rjmp	.+160    	; 0x122 <__bad_interrupt>
  82:	00 00       	nop
  84:	4e c0       	rjmp	.+156    	; 0x122 <__bad_interrupt>
  86:	00 00       	nop
  88:	4c c0       	rjmp	.+152    	; 0x122 <__bad_interrupt>
  8a:	00 00       	nop
  8c:	4a c0       	rjmp	.+148    	; 0x122 <__bad_interrupt>
  8e:	00 00       	nop
  90:	48 c0       	rjmp	.+144    	; 0x122 <__bad_interrupt>
  92:	00 00       	nop
  94:	46 c0       	rjmp	.+140    	; 0x122 <__bad_interrupt>
  96:	00 00       	nop
  98:	44 c0       	rjmp	.+136    	; 0x122 <__bad_interrupt>
  9a:	00 00       	nop
  9c:	42 c0       	rjmp	.+132    	; 0x122 <__bad_interrupt>
  9e:	00 00       	nop
  a0:	40 c0       	rjmp	.+128    	; 0x122 <__bad_interrupt>
  a2:	00 00       	nop
  a4:	3e c0       	rjmp	.+124    	; 0x122 <__bad_interrupt>
  a6:	00 00       	nop
  a8:	3c c0       	rjmp	.+120    	; 0x122 <__bad_interrupt>
  aa:	00 00       	nop
  ac:	3a c0       	rjmp	.+116    	; 0x122 <__bad_interrupt>
  ae:	00 00       	nop
  b0:	38 c0       	rjmp	.+112    	; 0x122 <__bad_interrupt>
  b2:	00 00       	nop
  b4:	36 c0       	rjmp	.+108    	; 0x122 <__bad_interrupt>
  b6:	00 00       	nop
  b8:	34 c0       	rjmp	.+104    	; 0x122 <__bad_interrupt>
  ba:	00 00       	nop
  bc:	32 c0       	rjmp	.+100    	; 0x122 <__bad_interrupt>
  be:	00 00       	nop
  c0:	30 c0       	rjmp	.+96     	; 0x122 <__bad_interrupt>
  c2:	00 00       	nop
  c4:	2e c0       	rjmp	.+92     	; 0x122 <__bad_interrupt>
  c6:	00 00       	nop
  c8:	2c c0       	rjmp	.+88     	; 0x122 <__bad_interrupt>
  ca:	00 00       	nop
  cc:	2a c0       	rjmp	.+84     	; 0x122 <__bad_interrupt>
  ce:	00 00       	nop
  d0:	28 c0       	rjmp	.+80     	; 0x122 <__bad_interrupt>
  d2:	00 00       	nop
  d4:	26 c0       	rjmp	.+76     	; 0x122 <__bad_interrupt>
  d6:	00 00       	nop
  d8:	24 c0       	rjmp	.+72     	; 0x122 <__bad_interrupt>
  da:	00 00       	nop
  dc:	22 c0       	rjmp	.+68     	; 0x122 <__bad_interrupt>
  de:	00 00       	nop
  e0:	20 c0       	rjmp	.+64     	; 0x122 <__bad_interrupt>
	...

000000e4 <__ctors_end>:
  e4:	11 24       	eor	r1, r1
  e6:	1f be       	out	0x3f, r1	; 63
  e8:	cf ef       	ldi	r28, 0xFF	; 255
  ea:	d1 e2       	ldi	r29, 0x21	; 33
  ec:	de bf       	out	0x3e, r29	; 62
  ee:	cd bf       	out	0x3d, r28	; 61
  f0:	00 e0       	ldi	r16, 0x00	; 0
  f2:	0c bf       	out	0x3c, r16	; 60

000000f4 <__do_copy_data>:
  f4:	12 e0       	ldi	r17, 0x02	; 2
  f6:	a0 e0       	ldi	r26, 0x00	; 0
  f8:	b2 e0       	ldi	r27, 0x02	; 2
  fa:	e0 e7       	ldi	r30, 0x70	; 112
  fc:	f9 e0       	ldi	r31, 0x09	; 9
  fe:	00 e0       	ldi	r16, 0x00	; 0
 100:	0b bf       	out	0x3b, r16	; 59
 102:	02 c0       	rjmp	.+4      	; 0x108 <__do_copy_data+0x14>
 104:	07 90       	elpm	r0, Z+
 106:	0d 92       	st	X+, r0
 108:	a6 3a       	cpi	r26, 0xA6	; 166
 10a:	b1 07       	cpc	r27, r17
 10c:	d9 f7       	brne	.-10     	; 0x104 <__do_copy_data+0x10>

0000010e <__do_clear_bss>:
 10e:	22 e0       	ldi	r18, 0x02	; 2
 110:	a6 ea       	ldi	r26, 0xA6	; 166
 112:	b2 e0       	ldi	r27, 0x02	; 2
 114:	01 c0       	rjmp	.+2      	; 0x118 <.do_clear_bss_start>

00000116 <.do_clear_bss_loop>:
 116:	1d 92       	st	X+, r1

00000118 <.do_clear_bss_start>:
 118:	a6 3a       	cpi	r26, 0xA6	; 166
 11a:	b2 07       	cpc	r27, r18
 11c:	e1 f7       	brne	.-8      	; 0x116 <.do_clear_bss_loop>
 11e:	b7 d2       	rcall	.+1390   	; 0x68e <main>
 120:	25 c4       	rjmp	.+2122   	; 0x96c <_exit>

00000122 <__bad_interrupt>:
 122:	6e cf       	rjmp	.-292    	; 0x0 <__vectors>

00000124 <_Z13GB_UART_Init0v>:
		GB_printString0("/n");
		OCR4C=GB_map(gb_i);
		//_delay_ms(100);
		
	}
}
 124:	87 e6       	ldi	r24, 0x67	; 103
 126:	90 e0       	ldi	r25, 0x00	; 0
 128:	90 93 c5 00 	sts	0x00C5, r25	; 0x8000c5 <__TEXT_REGION_LENGTH__+0x7000c5>
 12c:	80 93 c4 00 	sts	0x00C4, r24	; 0x8000c4 <__TEXT_REGION_LENGTH__+0x7000c4>
 130:	88 e9       	ldi	r24, 0x98	; 152
 132:	80 93 c1 00 	sts	0x00C1, r24	; 0x8000c1 <__TEXT_REGION_LENGTH__+0x7000c1>
 136:	08 95       	ret

00000138 <_Z15GB_UART_TxChar0j>:
 138:	e0 ec       	ldi	r30, 0xC0	; 192
 13a:	f0 e0       	ldi	r31, 0x00	; 0
 13c:	90 81       	ld	r25, Z
 13e:	95 ff       	sbrs	r25, 5
 140:	fd cf       	rjmp	.-6      	; 0x13c <_Z15GB_UART_TxChar0j+0x4>
 142:	80 93 c6 00 	sts	0x00C6, r24	; 0x8000c6 <__TEXT_REGION_LENGTH__+0x7000c6>
 146:	08 95       	ret

00000148 <_Z15GB_UART_RxChar0v>:
 148:	e0 ec       	ldi	r30, 0xC0	; 192
 14a:	f0 e0       	ldi	r31, 0x00	; 0
 14c:	80 81       	ld	r24, Z
 14e:	88 23       	and	r24, r24
 150:	ec f7       	brge	.-6      	; 0x14c <_Z15GB_UART_RxChar0v+0x4>
 152:	80 91 c6 00 	lds	r24, 0x00C6	; 0x8000c6 <__TEXT_REGION_LENGTH__+0x7000c6>
 156:	08 95       	ret

00000158 <_Z15GB_printString0PKc>:
 158:	cf 93       	push	r28
 15a:	df 93       	push	r29
 15c:	ec 01       	movw	r28, r24
 15e:	88 81       	ld	r24, Y
 160:	88 23       	and	r24, r24
 162:	31 f0       	breq	.+12     	; 0x170 <_Z15GB_printString0PKc+0x18>
 164:	21 96       	adiw	r28, 0x01	; 1
 166:	90 e0       	ldi	r25, 0x00	; 0
 168:	e7 df       	rcall	.-50     	; 0x138 <_Z15GB_UART_TxChar0j>
 16a:	89 91       	ld	r24, Y+
 16c:	81 11       	cpse	r24, r1
 16e:	fb cf       	rjmp	.-10     	; 0x166 <_Z15GB_printString0PKc+0xe>
 170:	df 91       	pop	r29
 172:	cf 91       	pop	r28
 174:	08 95       	ret

00000176 <_Z7GB_nullv>:
 176:	10 92 8d 00 	sts	0x008D, r1	; 0x80008d <__TEXT_REGION_LENGTH__+0x70008d>
 17a:	10 92 8c 00 	sts	0x008C, r1	; 0x80008c <__TEXT_REGION_LENGTH__+0x70008c>
 17e:	10 92 ad 00 	sts	0x00AD, r1	; 0x8000ad <__TEXT_REGION_LENGTH__+0x7000ad>
 182:	10 92 ac 00 	sts	0x00AC, r1	; 0x8000ac <__TEXT_REGION_LENGTH__+0x7000ac>
 186:	10 92 ab 00 	sts	0x00AB, r1	; 0x8000ab <__TEXT_REGION_LENGTH__+0x7000ab>
 18a:	10 92 aa 00 	sts	0x00AA, r1	; 0x8000aa <__TEXT_REGION_LENGTH__+0x7000aa>
 18e:	10 92 a9 00 	sts	0x00A9, r1	; 0x8000a9 <__TEXT_REGION_LENGTH__+0x7000a9>
 192:	10 92 a8 00 	sts	0x00A8, r1	; 0x8000a8 <__TEXT_REGION_LENGTH__+0x7000a8>
 196:	10 92 8b 00 	sts	0x008B, r1	; 0x80008b <__TEXT_REGION_LENGTH__+0x70008b>
 19a:	10 92 8a 00 	sts	0x008A, r1	; 0x80008a <__TEXT_REGION_LENGTH__+0x70008a>
 19e:	08 95       	ret

000001a0 <_Z7GB_glowv>:
 1a0:	80 e4       	ldi	r24, 0x40	; 64
 1a2:	9c e9       	ldi	r25, 0x9C	; 156
 1a4:	90 93 a9 00 	sts	0x00A9, r25	; 0x8000a9 <__TEXT_REGION_LENGTH__+0x7000a9>
 1a8:	80 93 a8 00 	sts	0x00A8, r24	; 0x8000a8 <__TEXT_REGION_LENGTH__+0x7000a8>
 1ac:	90 93 ab 00 	sts	0x00AB, r25	; 0x8000ab <__TEXT_REGION_LENGTH__+0x7000ab>
 1b0:	80 93 aa 00 	sts	0x00AA, r24	; 0x8000aa <__TEXT_REGION_LENGTH__+0x7000aa>
 1b4:	90 93 ad 00 	sts	0x00AD, r25	; 0x8000ad <__TEXT_REGION_LENGTH__+0x7000ad>
 1b8:	80 93 ac 00 	sts	0x00AC, r24	; 0x8000ac <__TEXT_REGION_LENGTH__+0x7000ac>
 1bc:	90 93 8b 00 	sts	0x008B, r25	; 0x80008b <__TEXT_REGION_LENGTH__+0x70008b>
 1c0:	80 93 8a 00 	sts	0x008A, r24	; 0x80008a <__TEXT_REGION_LENGTH__+0x70008a>
 1c4:	88 e9       	ldi	r24, 0x98	; 152
 1c6:	9a e3       	ldi	r25, 0x3A	; 58
 1c8:	90 93 8d 00 	sts	0x008D, r25	; 0x80008d <__TEXT_REGION_LENGTH__+0x70008d>
 1cc:	80 93 8c 00 	sts	0x008C, r24	; 0x80008c <__TEXT_REGION_LENGTH__+0x70008c>
 1d0:	08 95       	ret

000001d2 <_Z7GB_demov>:
 1d2:	0f 93       	push	r16
 1d4:	1f 93       	push	r17
 1d6:	cf 93       	push	r28
 1d8:	df 93       	push	r29
 1da:	83 e0       	ldi	r24, 0x03	; 3
 1dc:	92 e0       	ldi	r25, 0x02	; 2
 1de:	bc df       	rcall	.-136    	; 0x158 <_Z15GB_printString0PKc>
 1e0:	ca df       	rcall	.-108    	; 0x176 <_Z7GB_nullv>
 1e2:	2f ef       	ldi	r18, 0xFF	; 255
 1e4:	39 e6       	ldi	r19, 0x69	; 105
 1e6:	88 e1       	ldi	r24, 0x18	; 24
 1e8:	21 50       	subi	r18, 0x01	; 1
 1ea:	30 40       	sbci	r19, 0x00	; 0
 1ec:	80 40       	sbci	r24, 0x00	; 0
 1ee:	e1 f7       	brne	.-8      	; 0x1e8 <_Z7GB_demov+0x16>
 1f0:	00 c0       	rjmp	.+0      	; 0x1f2 <_Z7GB_demov+0x20>
 1f2:	00 00       	nop
 1f4:	05 e0       	ldi	r16, 0x05	; 5
 1f6:	10 e0       	ldi	r17, 0x00	; 0
 1f8:	c1 e0       	ldi	r28, 0x01	; 1
 1fa:	d1 e0       	ldi	r29, 0x01	; 1
 1fc:	d1 df       	rcall	.-94     	; 0x1a0 <_Z7GB_glowv>
 1fe:	9a ea       	ldi	r25, 0xAA	; 170
 200:	26 ee       	ldi	r18, 0xE6	; 230
 202:	36 e9       	ldi	r19, 0x96	; 150
 204:	81 e0       	ldi	r24, 0x01	; 1
 206:	91 50       	subi	r25, 0x01	; 1
 208:	20 40       	sbci	r18, 0x00	; 0
 20a:	30 40       	sbci	r19, 0x00	; 0
 20c:	80 40       	sbci	r24, 0x00	; 0
 20e:	d9 f7       	brne	.-10     	; 0x206 <_Z7GB_demov+0x34>
 210:	00 00       	nop
 212:	88 81       	ld	r24, Y
 214:	87 7f       	andi	r24, 0xF7	; 247
 216:	88 83       	st	Y, r24
 218:	88 81       	ld	r24, Y
 21a:	8f 7e       	andi	r24, 0xEF	; 239
 21c:	88 83       	st	Y, r24
 21e:	88 81       	ld	r24, Y
 220:	8f 7d       	andi	r24, 0xDF	; 223
 222:	88 83       	st	Y, r24
 224:	26 98       	cbi	0x04, 6	; 4
 226:	27 98       	cbi	0x04, 7	; 4
 228:	9a ea       	ldi	r25, 0xAA	; 170
 22a:	26 ee       	ldi	r18, 0xE6	; 230
 22c:	36 e9       	ldi	r19, 0x96	; 150
 22e:	81 e0       	ldi	r24, 0x01	; 1
 230:	91 50       	subi	r25, 0x01	; 1
 232:	20 40       	sbci	r18, 0x00	; 0
 234:	30 40       	sbci	r19, 0x00	; 0
 236:	80 40       	sbci	r24, 0x00	; 0
 238:	d9 f7       	brne	.-10     	; 0x230 <_Z7GB_demov+0x5e>
 23a:	00 00       	nop
 23c:	84 b1       	in	r24, 0x04	; 4
 23e:	80 6e       	ori	r24, 0xE0	; 224
 240:	84 b9       	out	0x04, r24	; 4
 242:	88 81       	ld	r24, Y
 244:	88 63       	ori	r24, 0x38	; 56
 246:	88 83       	st	Y, r24
 248:	9a ea       	ldi	r25, 0xAA	; 170
 24a:	26 ee       	ldi	r18, 0xE6	; 230
 24c:	36 e9       	ldi	r19, 0x96	; 150
 24e:	81 e0       	ldi	r24, 0x01	; 1
 250:	91 50       	subi	r25, 0x01	; 1
 252:	20 40       	sbci	r18, 0x00	; 0
 254:	30 40       	sbci	r19, 0x00	; 0
 256:	80 40       	sbci	r24, 0x00	; 0
 258:	d9 f7       	brne	.-10     	; 0x250 <_Z7GB_demov+0x7e>
 25a:	00 00       	nop
 25c:	01 50       	subi	r16, 0x01	; 1
 25e:	11 09       	sbc	r17, r1
 260:	69 f6       	brne	.-102    	; 0x1fc <_Z7GB_demov+0x2a>
 262:	9e df       	rcall	.-196    	; 0x1a0 <_Z7GB_glowv>
 264:	df 91       	pop	r29
 266:	cf 91       	pop	r28
 268:	1f 91       	pop	r17
 26a:	0f 91       	pop	r16
 26c:	08 95       	ret

0000026e <_Z15GB_firstpatternv>:
 26e:	cf 93       	push	r28
 270:	df 93       	push	r29
 272:	81 df       	rcall	.-254    	; 0x176 <_Z7GB_nullv>
 274:	84 b1       	in	r24, 0x04	; 4
 276:	80 6e       	ori	r24, 0xE0	; 224
 278:	84 b9       	out	0x04, r24	; 4
 27a:	c1 e0       	ldi	r28, 0x01	; 1
 27c:	d1 e0       	ldi	r29, 0x01	; 1
 27e:	88 81       	ld	r24, Y
 280:	88 63       	ori	r24, 0x38	; 56
 282:	88 83       	st	Y, r24
 284:	2f ef       	ldi	r18, 0xFF	; 255
 286:	39 e6       	ldi	r19, 0x69	; 105
 288:	48 e1       	ldi	r20, 0x18	; 24
 28a:	21 50       	subi	r18, 0x01	; 1
 28c:	30 40       	sbci	r19, 0x00	; 0
 28e:	40 40       	sbci	r20, 0x00	; 0
 290:	e1 f7       	brne	.-8      	; 0x28a <_Z15GB_firstpatternv+0x1c>
 292:	00 c0       	rjmp	.+0      	; 0x294 <_Z15GB_firstpatternv+0x26>
 294:	00 00       	nop
 296:	8b e0       	ldi	r24, 0x0B	; 11
 298:	92 e0       	ldi	r25, 0x02	; 2
 29a:	5e df       	rcall	.-324    	; 0x158 <_Z15GB_printString0PKc>
 29c:	80 e4       	ldi	r24, 0x40	; 64
 29e:	9c e9       	ldi	r25, 0x9C	; 156
 2a0:	90 93 a9 00 	sts	0x00A9, r25	; 0x8000a9 <__TEXT_REGION_LENGTH__+0x7000a9>
 2a4:	80 93 a8 00 	sts	0x00A8, r24	; 0x8000a8 <__TEXT_REGION_LENGTH__+0x7000a8>
 2a8:	54 e5       	ldi	r21, 0x54	; 84
 2aa:	2d ec       	ldi	r18, 0xCD	; 205
 2ac:	3d e2       	ldi	r19, 0x2D	; 45
 2ae:	43 e0       	ldi	r20, 0x03	; 3
 2b0:	51 50       	subi	r21, 0x01	; 1
 2b2:	20 40       	sbci	r18, 0x00	; 0
 2b4:	30 40       	sbci	r19, 0x00	; 0
 2b6:	40 40       	sbci	r20, 0x00	; 0
 2b8:	d9 f7       	brne	.-10     	; 0x2b0 <_Z15GB_firstpatternv+0x42>
 2ba:	00 c0       	rjmp	.+0      	; 0x2bc <_Z15GB_firstpatternv+0x4e>
 2bc:	00 c0       	rjmp	.+0      	; 0x2be <_Z15GB_firstpatternv+0x50>
 2be:	00 00       	nop
 2c0:	28 81       	ld	r18, Y
 2c2:	27 7f       	andi	r18, 0xF7	; 247
 2c4:	28 83       	st	Y, r18
 2c6:	90 93 ab 00 	sts	0x00AB, r25	; 0x8000ab <__TEXT_REGION_LENGTH__+0x7000ab>
 2ca:	80 93 aa 00 	sts	0x00AA, r24	; 0x8000aa <__TEXT_REGION_LENGTH__+0x7000aa>
 2ce:	54 e5       	ldi	r21, 0x54	; 84
 2d0:	2d ec       	ldi	r18, 0xCD	; 205
 2d2:	3d e2       	ldi	r19, 0x2D	; 45
 2d4:	43 e0       	ldi	r20, 0x03	; 3
 2d6:	51 50       	subi	r21, 0x01	; 1
 2d8:	20 40       	sbci	r18, 0x00	; 0
 2da:	30 40       	sbci	r19, 0x00	; 0
 2dc:	40 40       	sbci	r20, 0x00	; 0
 2de:	d9 f7       	brne	.-10     	; 0x2d6 <_Z15GB_firstpatternv+0x68>
 2e0:	00 c0       	rjmp	.+0      	; 0x2e2 <_Z15GB_firstpatternv+0x74>
 2e2:	00 c0       	rjmp	.+0      	; 0x2e4 <_Z15GB_firstpatternv+0x76>
 2e4:	00 00       	nop
 2e6:	28 81       	ld	r18, Y
 2e8:	2f 7e       	andi	r18, 0xEF	; 239
 2ea:	28 83       	st	Y, r18
 2ec:	90 93 ad 00 	sts	0x00AD, r25	; 0x8000ad <__TEXT_REGION_LENGTH__+0x7000ad>
 2f0:	80 93 ac 00 	sts	0x00AC, r24	; 0x8000ac <__TEXT_REGION_LENGTH__+0x7000ac>
 2f4:	54 e5       	ldi	r21, 0x54	; 84
 2f6:	2d ec       	ldi	r18, 0xCD	; 205
 2f8:	3d e2       	ldi	r19, 0x2D	; 45
 2fa:	43 e0       	ldi	r20, 0x03	; 3
 2fc:	51 50       	subi	r21, 0x01	; 1
 2fe:	20 40       	sbci	r18, 0x00	; 0
 300:	30 40       	sbci	r19, 0x00	; 0
 302:	40 40       	sbci	r20, 0x00	; 0
 304:	d9 f7       	brne	.-10     	; 0x2fc <_Z15GB_firstpatternv+0x8e>
 306:	00 c0       	rjmp	.+0      	; 0x308 <_Z15GB_firstpatternv+0x9a>
 308:	00 c0       	rjmp	.+0      	; 0x30a <_Z15GB_firstpatternv+0x9c>
 30a:	00 00       	nop
 30c:	28 81       	ld	r18, Y
 30e:	2f 7d       	andi	r18, 0xDF	; 223
 310:	28 83       	st	Y, r18
 312:	90 93 8b 00 	sts	0x008B, r25	; 0x80008b <__TEXT_REGION_LENGTH__+0x70008b>
 316:	80 93 8a 00 	sts	0x008A, r24	; 0x80008a <__TEXT_REGION_LENGTH__+0x70008a>
 31a:	88 e9       	ldi	r24, 0x98	; 152
 31c:	9a e3       	ldi	r25, 0x3A	; 58
 31e:	90 93 8d 00 	sts	0x008D, r25	; 0x80008d <__TEXT_REGION_LENGTH__+0x70008d>
 322:	80 93 8c 00 	sts	0x008C, r24	; 0x80008c <__TEXT_REGION_LENGTH__+0x70008c>
 326:	54 e5       	ldi	r21, 0x54	; 84
 328:	8d ec       	ldi	r24, 0xCD	; 205
 32a:	9d e2       	ldi	r25, 0x2D	; 45
 32c:	23 e0       	ldi	r18, 0x03	; 3
 32e:	51 50       	subi	r21, 0x01	; 1
 330:	80 40       	sbci	r24, 0x00	; 0
 332:	90 40       	sbci	r25, 0x00	; 0
 334:	20 40       	sbci	r18, 0x00	; 0
 336:	d9 f7       	brne	.-10     	; 0x32e <_Z15GB_firstpatternv+0xc0>
 338:	00 c0       	rjmp	.+0      	; 0x33a <_Z15GB_firstpatternv+0xcc>
 33a:	00 c0       	rjmp	.+0      	; 0x33c <_Z15GB_firstpatternv+0xce>
 33c:	00 00       	nop
 33e:	26 98       	cbi	0x04, 6	; 4
 340:	27 98       	cbi	0x04, 7	; 4
 342:	df 91       	pop	r29
 344:	cf 91       	pop	r28
 346:	08 95       	ret

00000348 <_Z16GB_secondpatternv>:
 348:	8c e1       	ldi	r24, 0x1C	; 28
 34a:	92 e0       	ldi	r25, 0x02	; 2
 34c:	05 df       	rcall	.-502    	; 0x158 <_Z15GB_printString0PKc>
 34e:	13 df       	rcall	.-474    	; 0x176 <_Z7GB_nullv>
 350:	2f ef       	ldi	r18, 0xFF	; 255
 352:	39 e6       	ldi	r19, 0x69	; 105
 354:	48 e1       	ldi	r20, 0x18	; 24
 356:	21 50       	subi	r18, 0x01	; 1
 358:	30 40       	sbci	r19, 0x00	; 0
 35a:	40 40       	sbci	r20, 0x00	; 0
 35c:	e1 f7       	brne	.-8      	; 0x356 <_Z16GB_secondpatternv+0xe>
 35e:	00 c0       	rjmp	.+0      	; 0x360 <_Z16GB_secondpatternv+0x18>
 360:	00 00       	nop
 362:	84 b1       	in	r24, 0x04	; 4
 364:	80 6e       	ori	r24, 0xE0	; 224
 366:	84 b9       	out	0x04, r24	; 4
 368:	e1 e0       	ldi	r30, 0x01	; 1
 36a:	f1 e0       	ldi	r31, 0x01	; 1
 36c:	80 81       	ld	r24, Z
 36e:	88 63       	ori	r24, 0x38	; 56
 370:	80 83       	st	Z, r24
 372:	80 e4       	ldi	r24, 0x40	; 64
 374:	9c e9       	ldi	r25, 0x9C	; 156
 376:	90 93 8b 00 	sts	0x008B, r25	; 0x80008b <__TEXT_REGION_LENGTH__+0x70008b>
 37a:	80 93 8a 00 	sts	0x008A, r24	; 0x80008a <__TEXT_REGION_LENGTH__+0x70008a>
 37e:	28 e9       	ldi	r18, 0x98	; 152
 380:	3a e3       	ldi	r19, 0x3A	; 58
 382:	30 93 8d 00 	sts	0x008D, r19	; 0x80008d <__TEXT_REGION_LENGTH__+0x70008d>
 386:	20 93 8c 00 	sts	0x008C, r18	; 0x80008c <__TEXT_REGION_LENGTH__+0x70008c>
 38a:	54 e5       	ldi	r21, 0x54	; 84
 38c:	2d ec       	ldi	r18, 0xCD	; 205
 38e:	3d e2       	ldi	r19, 0x2D	; 45
 390:	43 e0       	ldi	r20, 0x03	; 3
 392:	51 50       	subi	r21, 0x01	; 1
 394:	20 40       	sbci	r18, 0x00	; 0
 396:	30 40       	sbci	r19, 0x00	; 0
 398:	40 40       	sbci	r20, 0x00	; 0
 39a:	d9 f7       	brne	.-10     	; 0x392 <_Z16GB_secondpatternv+0x4a>
 39c:	00 c0       	rjmp	.+0      	; 0x39e <_Z16GB_secondpatternv+0x56>
 39e:	00 c0       	rjmp	.+0      	; 0x3a0 <_Z16GB_secondpatternv+0x58>
 3a0:	00 00       	nop
 3a2:	26 98       	cbi	0x04, 6	; 4
 3a4:	27 98       	cbi	0x04, 7	; 4
 3a6:	90 93 ad 00 	sts	0x00AD, r25	; 0x8000ad <__TEXT_REGION_LENGTH__+0x7000ad>
 3aa:	80 93 ac 00 	sts	0x00AC, r24	; 0x8000ac <__TEXT_REGION_LENGTH__+0x7000ac>
 3ae:	54 e5       	ldi	r21, 0x54	; 84
 3b0:	2d ec       	ldi	r18, 0xCD	; 205
 3b2:	3d e2       	ldi	r19, 0x2D	; 45
 3b4:	43 e0       	ldi	r20, 0x03	; 3
 3b6:	51 50       	subi	r21, 0x01	; 1
 3b8:	20 40       	sbci	r18, 0x00	; 0
 3ba:	30 40       	sbci	r19, 0x00	; 0
 3bc:	40 40       	sbci	r20, 0x00	; 0
 3be:	d9 f7       	brne	.-10     	; 0x3b6 <_Z16GB_secondpatternv+0x6e>
 3c0:	00 c0       	rjmp	.+0      	; 0x3c2 <_Z16GB_secondpatternv+0x7a>
 3c2:	00 c0       	rjmp	.+0      	; 0x3c4 <_Z16GB_secondpatternv+0x7c>
 3c4:	00 00       	nop
 3c6:	20 81       	ld	r18, Z
 3c8:	2f 7d       	andi	r18, 0xDF	; 223
 3ca:	20 83       	st	Z, r18
 3cc:	90 93 ab 00 	sts	0x00AB, r25	; 0x8000ab <__TEXT_REGION_LENGTH__+0x7000ab>
 3d0:	80 93 aa 00 	sts	0x00AA, r24	; 0x8000aa <__TEXT_REGION_LENGTH__+0x7000aa>
 3d4:	54 e5       	ldi	r21, 0x54	; 84
 3d6:	2d ec       	ldi	r18, 0xCD	; 205
 3d8:	3d e2       	ldi	r19, 0x2D	; 45
 3da:	43 e0       	ldi	r20, 0x03	; 3
 3dc:	51 50       	subi	r21, 0x01	; 1
 3de:	20 40       	sbci	r18, 0x00	; 0
 3e0:	30 40       	sbci	r19, 0x00	; 0
 3e2:	40 40       	sbci	r20, 0x00	; 0
 3e4:	d9 f7       	brne	.-10     	; 0x3dc <_Z16GB_secondpatternv+0x94>
 3e6:	00 c0       	rjmp	.+0      	; 0x3e8 <_Z16GB_secondpatternv+0xa0>
 3e8:	00 c0       	rjmp	.+0      	; 0x3ea <_Z16GB_secondpatternv+0xa2>
 3ea:	00 00       	nop
 3ec:	20 81       	ld	r18, Z
 3ee:	2f 7e       	andi	r18, 0xEF	; 239
 3f0:	20 83       	st	Z, r18
 3f2:	90 93 a9 00 	sts	0x00A9, r25	; 0x8000a9 <__TEXT_REGION_LENGTH__+0x7000a9>
 3f6:	80 93 a8 00 	sts	0x00A8, r24	; 0x8000a8 <__TEXT_REGION_LENGTH__+0x7000a8>
 3fa:	54 e5       	ldi	r21, 0x54	; 84
 3fc:	8d ec       	ldi	r24, 0xCD	; 205
 3fe:	9d e2       	ldi	r25, 0x2D	; 45
 400:	23 e0       	ldi	r18, 0x03	; 3
 402:	51 50       	subi	r21, 0x01	; 1
 404:	80 40       	sbci	r24, 0x00	; 0
 406:	90 40       	sbci	r25, 0x00	; 0
 408:	20 40       	sbci	r18, 0x00	; 0
 40a:	d9 f7       	brne	.-10     	; 0x402 <__LOCK_REGION_LENGTH__+0x2>
 40c:	00 c0       	rjmp	.+0      	; 0x40e <__LOCK_REGION_LENGTH__+0xe>
 40e:	00 c0       	rjmp	.+0      	; 0x410 <__LOCK_REGION_LENGTH__+0x10>
 410:	00 00       	nop
 412:	80 81       	ld	r24, Z
 414:	87 7f       	andi	r24, 0xF7	; 247
 416:	80 83       	st	Z, r24
 418:	3f ef       	ldi	r19, 0xFF	; 255
 41a:	41 ee       	ldi	r20, 0xE1	; 225
 41c:	54 e0       	ldi	r21, 0x04	; 4
 41e:	31 50       	subi	r19, 0x01	; 1
 420:	40 40       	sbci	r20, 0x00	; 0
 422:	50 40       	sbci	r21, 0x00	; 0
 424:	e1 f7       	brne	.-8      	; 0x41e <__LOCK_REGION_LENGTH__+0x1e>
 426:	00 c0       	rjmp	.+0      	; 0x428 <__LOCK_REGION_LENGTH__+0x28>
 428:	00 00       	nop
 42a:	08 95       	ret

0000042c <_Z15GB_thirdpatternv>:
 42c:	af 92       	push	r10
 42e:	bf 92       	push	r11
 430:	cf 92       	push	r12
 432:	df 92       	push	r13
 434:	ef 92       	push	r14
 436:	ff 92       	push	r15
 438:	0f 93       	push	r16
 43a:	1f 93       	push	r17
 43c:	cf 93       	push	r28
 43e:	df 93       	push	r29
 440:	8e e2       	ldi	r24, 0x2E	; 46
 442:	92 e0       	ldi	r25, 0x02	; 2
 444:	89 de       	rcall	.-750    	; 0x158 <_Z15GB_printString0PKc>
 446:	97 de       	rcall	.-722    	; 0x176 <_Z7GB_nullv>
 448:	2f ef       	ldi	r18, 0xFF	; 255
 44a:	39 e6       	ldi	r19, 0x69	; 105
 44c:	48 e1       	ldi	r20, 0x18	; 24
 44e:	21 50       	subi	r18, 0x01	; 1
 450:	30 40       	sbci	r19, 0x00	; 0
 452:	40 40       	sbci	r20, 0x00	; 0
 454:	e1 f7       	brne	.-8      	; 0x44e <_Z15GB_thirdpatternv+0x22>
 456:	00 c0       	rjmp	.+0      	; 0x458 <_Z15GB_thirdpatternv+0x2c>
 458:	00 00       	nop
 45a:	84 b1       	in	r24, 0x04	; 4
 45c:	80 6e       	ori	r24, 0xE0	; 224
 45e:	84 b9       	out	0x04, r24	; 4
 460:	e1 e0       	ldi	r30, 0x01	; 1
 462:	f1 e0       	ldi	r31, 0x01	; 1
 464:	80 81       	ld	r24, Z
 466:	88 63       	ori	r24, 0x38	; 56
 468:	80 83       	st	Z, r24
 46a:	68 ea       	ldi	r22, 0xA8	; 168
 46c:	70 e0       	ldi	r23, 0x00	; 0
 46e:	80 e4       	ldi	r24, 0x40	; 64
 470:	9c e9       	ldi	r25, 0x9C	; 156
 472:	db 01       	movw	r26, r22
 474:	11 96       	adiw	r26, 0x01	; 1
 476:	9c 93       	st	X, r25
 478:	8e 93       	st	-X, r24
 47a:	0f 2e       	mov	r0, r31
 47c:	fa ea       	ldi	r31, 0xAA	; 170
 47e:	ef 2e       	mov	r14, r31
 480:	f1 2c       	mov	r15, r1
 482:	f0 2d       	mov	r31, r0
 484:	d7 01       	movw	r26, r14
 486:	11 96       	adiw	r26, 0x01	; 1
 488:	9c 93       	st	X, r25
 48a:	8e 93       	st	-X, r24
 48c:	b4 e5       	ldi	r27, 0x54	; 84
 48e:	2d ec       	ldi	r18, 0xCD	; 205
 490:	3d e2       	ldi	r19, 0x2D	; 45
 492:	43 e0       	ldi	r20, 0x03	; 3
 494:	b1 50       	subi	r27, 0x01	; 1
 496:	20 40       	sbci	r18, 0x00	; 0
 498:	30 40       	sbci	r19, 0x00	; 0
 49a:	40 40       	sbci	r20, 0x00	; 0
 49c:	d9 f7       	brne	.-10     	; 0x494 <_Z15GB_thirdpatternv+0x68>
 49e:	00 c0       	rjmp	.+0      	; 0x4a0 <_Z15GB_thirdpatternv+0x74>
 4a0:	00 c0       	rjmp	.+0      	; 0x4a2 <_Z15GB_thirdpatternv+0x76>
 4a2:	00 00       	nop
 4a4:	20 81       	ld	r18, Z
 4a6:	2f 7e       	andi	r18, 0xEF	; 239
 4a8:	20 83       	st	Z, r18
 4aa:	20 81       	ld	r18, Z
 4ac:	27 7f       	andi	r18, 0xF7	; 247
 4ae:	20 83       	st	Z, r18
 4b0:	0c ea       	ldi	r16, 0xAC	; 172
 4b2:	10 e0       	ldi	r17, 0x00	; 0
 4b4:	d8 01       	movw	r26, r16
 4b6:	11 96       	adiw	r26, 0x01	; 1
 4b8:	9c 93       	st	X, r25
 4ba:	8e 93       	st	-X, r24
 4bc:	ca e8       	ldi	r28, 0x8A	; 138
 4be:	d0 e0       	ldi	r29, 0x00	; 0
 4c0:	99 83       	std	Y+1, r25	; 0x01
 4c2:	88 83       	st	Y, r24
 4c4:	0f 2e       	mov	r0, r31
 4c6:	fc e8       	ldi	r31, 0x8C	; 140
 4c8:	cf 2e       	mov	r12, r31
 4ca:	d1 2c       	mov	r13, r1
 4cc:	f0 2d       	mov	r31, r0
 4ce:	0f 2e       	mov	r0, r31
 4d0:	f8 e9       	ldi	r31, 0x98	; 152
 4d2:	af 2e       	mov	r10, r31
 4d4:	fa e3       	ldi	r31, 0x3A	; 58
 4d6:	bf 2e       	mov	r11, r31
 4d8:	f0 2d       	mov	r31, r0
 4da:	d6 01       	movw	r26, r12
 4dc:	11 96       	adiw	r26, 0x01	; 1
 4de:	bc 92       	st	X, r11
 4e0:	ae 92       	st	-X, r10
 4e2:	b4 e5       	ldi	r27, 0x54	; 84
 4e4:	2d ec       	ldi	r18, 0xCD	; 205
 4e6:	3d e2       	ldi	r19, 0x2D	; 45
 4e8:	43 e0       	ldi	r20, 0x03	; 3
 4ea:	b1 50       	subi	r27, 0x01	; 1
 4ec:	20 40       	sbci	r18, 0x00	; 0
 4ee:	30 40       	sbci	r19, 0x00	; 0
 4f0:	40 40       	sbci	r20, 0x00	; 0
 4f2:	d9 f7       	brne	.-10     	; 0x4ea <_Z15GB_thirdpatternv+0xbe>
 4f4:	00 c0       	rjmp	.+0      	; 0x4f6 <_Z15GB_thirdpatternv+0xca>
 4f6:	00 c0       	rjmp	.+0      	; 0x4f8 <_Z15GB_thirdpatternv+0xcc>
 4f8:	00 00       	nop
 4fa:	26 98       	cbi	0x04, 6	; 4
 4fc:	27 98       	cbi	0x04, 7	; 4
 4fe:	20 81       	ld	r18, Z
 500:	2f 7d       	andi	r18, 0xDF	; 223
 502:	20 83       	st	Z, r18
 504:	24 b1       	in	r18, 0x04	; 4
 506:	20 6e       	ori	r18, 0xE0	; 224
 508:	24 b9       	out	0x04, r18	; 4
 50a:	20 81       	ld	r18, Z
 50c:	28 63       	ori	r18, 0x38	; 56
 50e:	20 83       	st	Z, r18
 510:	d7 01       	movw	r26, r14
 512:	11 96       	adiw	r26, 0x01	; 1
 514:	9c 93       	st	X, r25
 516:	8e 93       	st	-X, r24
 518:	d8 01       	movw	r26, r16
 51a:	11 96       	adiw	r26, 0x01	; 1
 51c:	9c 93       	st	X, r25
 51e:	8e 93       	st	-X, r24
 520:	b4 e5       	ldi	r27, 0x54	; 84
 522:	2d ec       	ldi	r18, 0xCD	; 205
 524:	3d e2       	ldi	r19, 0x2D	; 45
 526:	43 e0       	ldi	r20, 0x03	; 3
 528:	b1 50       	subi	r27, 0x01	; 1
 52a:	20 40       	sbci	r18, 0x00	; 0
 52c:	30 40       	sbci	r19, 0x00	; 0
 52e:	40 40       	sbci	r20, 0x00	; 0
 530:	d9 f7       	brne	.-10     	; 0x528 <_Z15GB_thirdpatternv+0xfc>
 532:	00 c0       	rjmp	.+0      	; 0x534 <_Z15GB_thirdpatternv+0x108>
 534:	00 c0       	rjmp	.+0      	; 0x536 <_Z15GB_thirdpatternv+0x10a>
 536:	00 00       	nop
 538:	20 81       	ld	r18, Z
 53a:	2f 7e       	andi	r18, 0xEF	; 239
 53c:	20 83       	st	Z, r18
 53e:	20 81       	ld	r18, Z
 540:	2f 7d       	andi	r18, 0xDF	; 223
 542:	20 83       	st	Z, r18
 544:	db 01       	movw	r26, r22
 546:	11 96       	adiw	r26, 0x01	; 1
 548:	9c 93       	st	X, r25
 54a:	8e 93       	st	-X, r24
 54c:	99 83       	std	Y+1, r25	; 0x01
 54e:	88 83       	st	Y, r24
 550:	d6 01       	movw	r26, r12
 552:	11 96       	adiw	r26, 0x01	; 1
 554:	bc 92       	st	X, r11
 556:	ae 92       	st	-X, r10
 558:	b4 e5       	ldi	r27, 0x54	; 84
 55a:	2d ec       	ldi	r18, 0xCD	; 205
 55c:	3d e2       	ldi	r19, 0x2D	; 45
 55e:	43 e0       	ldi	r20, 0x03	; 3
 560:	b1 50       	subi	r27, 0x01	; 1
 562:	20 40       	sbci	r18, 0x00	; 0
 564:	30 40       	sbci	r19, 0x00	; 0
 566:	40 40       	sbci	r20, 0x00	; 0
 568:	d9 f7       	brne	.-10     	; 0x560 <_Z15GB_thirdpatternv+0x134>
 56a:	00 c0       	rjmp	.+0      	; 0x56c <_Z15GB_thirdpatternv+0x140>
 56c:	00 c0       	rjmp	.+0      	; 0x56e <_Z15GB_thirdpatternv+0x142>
 56e:	00 00       	nop
 570:	26 98       	cbi	0x04, 6	; 4
 572:	27 98       	cbi	0x04, 7	; 4
 574:	80 81       	ld	r24, Z
 576:	87 7f       	andi	r24, 0xF7	; 247
 578:	80 83       	st	Z, r24
 57a:	df 91       	pop	r29
 57c:	cf 91       	pop	r28
 57e:	1f 91       	pop	r17
 580:	0f 91       	pop	r16
 582:	ff 90       	pop	r15
 584:	ef 90       	pop	r14
 586:	df 90       	pop	r13
 588:	cf 90       	pop	r12
 58a:	bf 90       	pop	r11
 58c:	af 90       	pop	r10
 58e:	08 95       	ret

00000590 <_Z16GB_fourthpatternv>:
 590:	4f 92       	push	r4
 592:	5f 92       	push	r5
 594:	6f 92       	push	r6
 596:	7f 92       	push	r7
 598:	8f 92       	push	r8
 59a:	9f 92       	push	r9
 59c:	af 92       	push	r10
 59e:	bf 92       	push	r11
 5a0:	cf 92       	push	r12
 5a2:	df 92       	push	r13
 5a4:	ef 92       	push	r14
 5a6:	ff 92       	push	r15
 5a8:	0f 93       	push	r16
 5aa:	1f 93       	push	r17
 5ac:	cf 93       	push	r28
 5ae:	df 93       	push	r29
 5b0:	8f e3       	ldi	r24, 0x3F	; 63
 5b2:	92 e0       	ldi	r25, 0x02	; 2
 5b4:	d1 dd       	rcall	.-1118   	; 0x158 <_Z15GB_printString0PKc>
 5b6:	df dd       	rcall	.-1090   	; 0x176 <_Z7GB_nullv>
 5b8:	2f ef       	ldi	r18, 0xFF	; 255
 5ba:	89 e6       	ldi	r24, 0x69	; 105
 5bc:	98 e1       	ldi	r25, 0x18	; 24
 5be:	21 50       	subi	r18, 0x01	; 1
 5c0:	80 40       	sbci	r24, 0x00	; 0
 5c2:	90 40       	sbci	r25, 0x00	; 0
 5c4:	e1 f7       	brne	.-8      	; 0x5be <_Z16GB_fourthpatternv+0x2e>
 5c6:	00 c0       	rjmp	.+0      	; 0x5c8 <_Z16GB_fourthpatternv+0x38>
 5c8:	00 00       	nop
 5ca:	84 b1       	in	r24, 0x04	; 4
 5cc:	80 6e       	ori	r24, 0xE0	; 224
 5ce:	84 b9       	out	0x04, r24	; 4
 5d0:	e1 e0       	ldi	r30, 0x01	; 1
 5d2:	f1 e0       	ldi	r31, 0x01	; 1
 5d4:	80 81       	ld	r24, Z
 5d6:	88 63       	ori	r24, 0x38	; 56
 5d8:	80 83       	st	Z, r24
 5da:	c0 e0       	ldi	r28, 0x00	; 0
 5dc:	d0 e0       	ldi	r29, 0x00	; 0
 5de:	0f 2e       	mov	r0, r31
 5e0:	fc ea       	ldi	r31, 0xAC	; 172
 5e2:	af 2e       	mov	r10, r31
 5e4:	b1 2c       	mov	r11, r1
 5e6:	f0 2d       	mov	r31, r0
 5e8:	0f 2e       	mov	r0, r31
 5ea:	fa ea       	ldi	r31, 0xAA	; 170
 5ec:	cf 2e       	mov	r12, r31
 5ee:	d1 2c       	mov	r13, r1
 5f0:	f0 2d       	mov	r31, r0
 5f2:	0f 2e       	mov	r0, r31
 5f4:	f8 ea       	ldi	r31, 0xA8	; 168
 5f6:	ef 2e       	mov	r14, r31
 5f8:	f1 2c       	mov	r15, r1
 5fa:	f0 2d       	mov	r31, r0
 5fc:	0a e8       	ldi	r16, 0x8A	; 138
 5fe:	10 e0       	ldi	r17, 0x00	; 0
 600:	0f 2e       	mov	r0, r31
 602:	fc e8       	ldi	r31, 0x8C	; 140
 604:	8f 2e       	mov	r8, r31
 606:	91 2c       	mov	r9, r1
 608:	f0 2d       	mov	r31, r0
 60a:	be 01       	movw	r22, r28
 60c:	80 e0       	ldi	r24, 0x00	; 0
 60e:	90 e0       	ldi	r25, 0x00	; 0
 610:	bc d0       	rcall	.+376    	; 0x78a <__floatunsisf>
 612:	21 e7       	ldi	r18, 0x71	; 113
 614:	3d e3       	ldi	r19, 0x3D	; 61
 616:	4c e1       	ldi	r20, 0x1C	; 28
 618:	52 e4       	ldi	r21, 0x42	; 66
 61a:	45 d1       	rcall	.+650    	; 0x8a6 <__mulsf3>
 61c:	2b 01       	movw	r4, r22
 61e:	3c 01       	movw	r6, r24
 620:	88 d0       	rcall	.+272    	; 0x732 <__fixunssfsi>
 622:	f5 01       	movw	r30, r10
 624:	71 83       	std	Z+1, r23	; 0x01
 626:	60 83       	st	Z, r22
 628:	f6 01       	movw	r30, r12
 62a:	71 83       	std	Z+1, r23	; 0x01
 62c:	60 83       	st	Z, r22
 62e:	f7 01       	movw	r30, r14
 630:	71 83       	std	Z+1, r23	; 0x01
 632:	60 83       	st	Z, r22
 634:	f8 01       	movw	r30, r16
 636:	71 83       	std	Z+1, r23	; 0x01
 638:	60 83       	st	Z, r22
 63a:	20 e0       	ldi	r18, 0x00	; 0
 63c:	30 e0       	ldi	r19, 0x00	; 0
 63e:	40 e0       	ldi	r20, 0x00	; 0
 640:	5f e3       	ldi	r21, 0x3F	; 63
 642:	c3 01       	movw	r24, r6
 644:	b2 01       	movw	r22, r4
 646:	2f d1       	rcall	.+606    	; 0x8a6 <__mulsf3>
 648:	74 d0       	rcall	.+232    	; 0x732 <__fixunssfsi>
 64a:	f4 01       	movw	r30, r8
 64c:	71 83       	std	Z+1, r23	; 0x01
 64e:	60 83       	st	Z, r22
 650:	ff ef       	ldi	r31, 0xFF	; 255
 652:	23 ec       	ldi	r18, 0xC3	; 195
 654:	89 e0       	ldi	r24, 0x09	; 9
 656:	f1 50       	subi	r31, 0x01	; 1
 658:	20 40       	sbci	r18, 0x00	; 0
 65a:	80 40       	sbci	r24, 0x00	; 0
 65c:	e1 f7       	brne	.-8      	; 0x656 <_Z16GB_fourthpatternv+0xc6>
 65e:	00 c0       	rjmp	.+0      	; 0x660 <_Z16GB_fourthpatternv+0xd0>
 660:	00 00       	nop
 662:	21 96       	adiw	r28, 0x01	; 1
 664:	c1 15       	cp	r28, r1
 666:	94 e0       	ldi	r25, 0x04	; 4
 668:	d9 07       	cpc	r29, r25
 66a:	79 f6       	brne	.-98     	; 0x60a <_Z16GB_fourthpatternv+0x7a>
 66c:	df 91       	pop	r29
 66e:	cf 91       	pop	r28
 670:	1f 91       	pop	r17
 672:	0f 91       	pop	r16
 674:	ff 90       	pop	r15
 676:	ef 90       	pop	r14
 678:	df 90       	pop	r13
 67a:	cf 90       	pop	r12
 67c:	bf 90       	pop	r11
 67e:	af 90       	pop	r10
 680:	9f 90       	pop	r9
 682:	8f 90       	pop	r8
 684:	7f 90       	pop	r7
 686:	6f 90       	pop	r6
 688:	5f 90       	pop	r5
 68a:	4f 90       	pop	r4
 68c:	08 95       	ret

0000068e <main>:
}
static inline void GB_initTimer4Servo(void)
{
	/* Set up Timer1 (16bit) to give a pulse every 20ms */
	/* Use Fast PWM mode, counter max in ICR1 */
	TCCR4A |= (1 << WGM41);
 68e:	e0 ea       	ldi	r30, 0xA0	; 160
 690:	f0 e0       	ldi	r31, 0x00	; 0
 692:	80 81       	ld	r24, Z
 694:	82 60       	ori	r24, 0x02	; 2
 696:	80 83       	st	Z, r24
	TCCR4B |= (1 << WGM42) | (1 << WGM43);
 698:	a1 ea       	ldi	r26, 0xA1	; 161
 69a:	b0 e0       	ldi	r27, 0x00	; 0
 69c:	8c 91       	ld	r24, X
 69e:	88 61       	ori	r24, 0x18	; 24
 6a0:	8c 93       	st	X, r24
	TCCR4B |= (1 << CS41);  /* /1 prescaling -- counting in microseconds */
 6a2:	8c 91       	ld	r24, X
 6a4:	82 60       	ori	r24, 0x02	; 2
 6a6:	8c 93       	st	X, r24
	ICR4 = 40000;                                    /* TOP value = 20ms */
 6a8:	20 e4       	ldi	r18, 0x40	; 64
 6aa:	3c e9       	ldi	r19, 0x9C	; 156
 6ac:	30 93 a7 00 	sts	0x00A7, r19	; 0x8000a7 <__TEXT_REGION_LENGTH__+0x7000a7>
 6b0:	20 93 a6 00 	sts	0x00A6, r18	; 0x8000a6 <__TEXT_REGION_LENGTH__+0x7000a6>
	TCCR4A |= (1 << COM4A1)|(1<<COM4B1)|(1<<COM4C1);              /* Direct output on PB1 / OC1A */
 6b4:	80 81       	ld	r24, Z
 6b6:	88 6a       	ori	r24, 0xA8	; 168
 6b8:	80 83       	st	Z, r24

static inline void GB_initTimer1Servo(void)
{
	/* Set up Timer1 (16bit) to give a pulse every 20ms */
	/* Use Fast PWM mode, counter max in ICR1 */
	TCCR1A |= (1 << WGM11);
 6ba:	e0 e8       	ldi	r30, 0x80	; 128
 6bc:	f0 e0       	ldi	r31, 0x00	; 0
 6be:	80 81       	ld	r24, Z
 6c0:	82 60       	ori	r24, 0x02	; 2
 6c2:	80 83       	st	Z, r24
	TCCR1B |= (1 << WGM12) | (1 << WGM13);
 6c4:	a1 e8       	ldi	r26, 0x81	; 129
 6c6:	b0 e0       	ldi	r27, 0x00	; 0
 6c8:	8c 91       	ld	r24, X
 6ca:	88 61       	ori	r24, 0x18	; 24
 6cc:	8c 93       	st	X, r24
	TCCR1B |= (1 << CS11);  /* /1 prescaling -- counting in microseconds */
 6ce:	8c 91       	ld	r24, X
 6d0:	82 60       	ori	r24, 0x02	; 2
 6d2:	8c 93       	st	X, r24
	ICR1 = 40000;                                    /* TOP value = 20ms */
 6d4:	30 93 87 00 	sts	0x0087, r19	; 0x800087 <__TEXT_REGION_LENGTH__+0x700087>
 6d8:	20 93 86 00 	sts	0x0086, r18	; 0x800086 <__TEXT_REGION_LENGTH__+0x700086>
	TCCR1A |= (1 << COM1A1)|(1<<COM1B1)|(1<<COM1C1);              /* Direct output on PB1 / OC1A */
 6dc:	80 81       	ld	r24, Z
 6de:	88 6a       	ori	r24, 0xA8	; 168
 6e0:	80 83       	st	Z, r24
	// -------- Inits --------- //
	
	GB_initTimer4Servo();
	GB_initTimer1Servo();
	char  GB_val;
	GB_UART_Init0();
 6e2:	20 dd       	rcall	.-1472   	; 0x124 <_Z13GB_UART_Init0v>
	
	
	GB_printString0("DICO LIGHTS \n");
 6e4:	83 e5       	ldi	r24, 0x53	; 83
 6e6:	92 e0       	ldi	r25, 0x02	; 2
 6e8:	37 dd       	rcall	.-1426   	; 0x158 <_Z15GB_printString0PKc>
	GB_printString0("1. 1st Pattern \n");
 6ea:	81 e6       	ldi	r24, 0x61	; 97
 6ec:	92 e0       	ldi	r25, 0x02	; 2
 6ee:	34 dd       	rcall	.-1432   	; 0x158 <_Z15GB_printString0PKc>
	GB_printString0("2. 2nd Pattern \n");
 6f0:	82 e7       	ldi	r24, 0x72	; 114
 6f2:	92 e0       	ldi	r25, 0x02	; 2
 6f4:	31 dd       	rcall	.-1438   	; 0x158 <_Z15GB_printString0PKc>
	GB_printString0("3. 3rd Pattern \n");
 6f6:	83 e8       	ldi	r24, 0x83	; 131
 6f8:	92 e0       	ldi	r25, 0x02	; 2
	GB_printString0("4. 4th Pattern \n");
 6fa:	2e dd       	rcall	.-1444   	; 0x158 <_Z15GB_printString0PKc>
 6fc:	84 e9       	ldi	r24, 0x94	; 148
 6fe:	92 e0       	ldi	r25, 0x02	; 2
	GB_demo();
 700:	2b dd       	rcall	.-1450   	; 0x158 <_Z15GB_printString0PKc>
 702:	67 dd       	rcall	.-1330   	; 0x1d2 <_Z7GB_demov>
		//firstpattern();
		//secondpattern();
		
		//	val= rxstring0();
		//UART_TxChar0(val);
		char gb_option = GB_UART_RxChar0();
 704:	21 dd       	rcall	.-1470   	; 0x148 <_Z15GB_UART_RxChar0v>
 706:	c8 2f       	mov	r28, r24
 708:	90 e0       	ldi	r25, 0x00	; 0
		GB_UART_TxChar0(gb_option);
 70a:	16 dd       	rcall	.-1492   	; 0x138 <_Z15GB_UART_TxChar0j>
 70c:	c2 33       	cpi	r28, 0x32	; 50
 70e:	59 f0       	breq	.+22     	; 0x726 <main+0x98>
		switch (gb_option)
 710:	18 f4       	brcc	.+6      	; 0x718 <main+0x8a>
 712:	c1 33       	cpi	r28, 0x31	; 49
 714:	31 f0       	breq	.+12     	; 0x722 <main+0x94>
 716:	f6 cf       	rjmp	.-20     	; 0x704 <main+0x76>
 718:	c3 33       	cpi	r28, 0x33	; 51
 71a:	39 f0       	breq	.+14     	; 0x72a <main+0x9c>
 71c:	c4 33       	cpi	r28, 0x34	; 52
 71e:	39 f0       	breq	.+14     	; 0x72e <main+0xa0>
		{
			case '1' : {
				GB_firstpattern();
 720:	f1 cf       	rjmp	.-30     	; 0x704 <main+0x76>
 722:	a5 dd       	rcall	.-1206   	; 0x26e <_Z15GB_firstpatternv>
				break;
 724:	ef cf       	rjmp	.-34     	; 0x704 <main+0x76>
			}
			case '2' : {
				GB_secondpattern();
 726:	10 de       	rcall	.-992    	; 0x348 <_Z16GB_secondpatternv>
 728:	ed cf       	rjmp	.-38     	; 0x704 <main+0x76>
				break;
 72a:	80 de       	rcall	.-768    	; 0x42c <_Z15GB_thirdpatternv>
			}
			case '3' : {
				GB_thirdpattern();
 72c:	eb cf       	rjmp	.-42     	; 0x704 <main+0x76>
 72e:	30 df       	rcall	.-416    	; 0x590 <_Z16GB_fourthpatternv>
				break;
 730:	e9 cf       	rjmp	.-46     	; 0x704 <main+0x76>

00000732 <__fixunssfsi>:
			}
			case '4' : {
				GB_fourthpattern();
 732:	98 d0       	rcall	.+304    	; 0x864 <__fp_splitA>
 734:	88 f0       	brcs	.+34     	; 0x758 <__fixunssfsi+0x26>
				break;
 736:	9f 57       	subi	r25, 0x7F	; 127
 738:	90 f0       	brcs	.+36     	; 0x75e <__fixunssfsi+0x2c>
 73a:	b9 2f       	mov	r27, r25
 73c:	99 27       	eor	r25, r25
 73e:	b7 51       	subi	r27, 0x17	; 23
 740:	a0 f0       	brcs	.+40     	; 0x76a <__fixunssfsi+0x38>
 742:	d1 f0       	breq	.+52     	; 0x778 <__fixunssfsi+0x46>
 744:	66 0f       	add	r22, r22
 746:	77 1f       	adc	r23, r23
 748:	88 1f       	adc	r24, r24
 74a:	99 1f       	adc	r25, r25
 74c:	1a f0       	brmi	.+6      	; 0x754 <__fixunssfsi+0x22>
 74e:	ba 95       	dec	r27
 750:	c9 f7       	brne	.-14     	; 0x744 <__fixunssfsi+0x12>
 752:	12 c0       	rjmp	.+36     	; 0x778 <__fixunssfsi+0x46>
 754:	b1 30       	cpi	r27, 0x01	; 1
 756:	81 f0       	breq	.+32     	; 0x778 <__fixunssfsi+0x46>
 758:	9f d0       	rcall	.+318    	; 0x898 <__fp_zero>
 75a:	b1 e0       	ldi	r27, 0x01	; 1
 75c:	08 95       	ret
 75e:	9c c0       	rjmp	.+312    	; 0x898 <__fp_zero>
 760:	67 2f       	mov	r22, r23
 762:	78 2f       	mov	r23, r24
 764:	88 27       	eor	r24, r24
 766:	b8 5f       	subi	r27, 0xF8	; 248
 768:	39 f0       	breq	.+14     	; 0x778 <__fixunssfsi+0x46>
 76a:	b9 3f       	cpi	r27, 0xF9	; 249
 76c:	cc f3       	brlt	.-14     	; 0x760 <__fixunssfsi+0x2e>
 76e:	86 95       	lsr	r24
 770:	77 95       	ror	r23
 772:	67 95       	ror	r22
 774:	b3 95       	inc	r27
 776:	d9 f7       	brne	.-10     	; 0x76e <__fixunssfsi+0x3c>
 778:	3e f4       	brtc	.+14     	; 0x788 <__fixunssfsi+0x56>
 77a:	90 95       	com	r25
 77c:	80 95       	com	r24
 77e:	70 95       	com	r23
 780:	61 95       	neg	r22
 782:	7f 4f       	sbci	r23, 0xFF	; 255
 784:	8f 4f       	sbci	r24, 0xFF	; 255
 786:	9f 4f       	sbci	r25, 0xFF	; 255
 788:	08 95       	ret

0000078a <__floatunsisf>:
 78a:	e8 94       	clt
 78c:	09 c0       	rjmp	.+18     	; 0x7a0 <__floatsisf+0x12>

0000078e <__floatsisf>:
 78e:	97 fb       	bst	r25, 7
 790:	3e f4       	brtc	.+14     	; 0x7a0 <__floatsisf+0x12>
 792:	90 95       	com	r25
 794:	80 95       	com	r24
 796:	70 95       	com	r23
 798:	61 95       	neg	r22
 79a:	7f 4f       	sbci	r23, 0xFF	; 255
 79c:	8f 4f       	sbci	r24, 0xFF	; 255
 79e:	9f 4f       	sbci	r25, 0xFF	; 255
 7a0:	99 23       	and	r25, r25
 7a2:	a9 f0       	breq	.+42     	; 0x7ce <__floatsisf+0x40>
 7a4:	f9 2f       	mov	r31, r25
 7a6:	96 e9       	ldi	r25, 0x96	; 150
 7a8:	bb 27       	eor	r27, r27
 7aa:	93 95       	inc	r25
 7ac:	f6 95       	lsr	r31
 7ae:	87 95       	ror	r24
 7b0:	77 95       	ror	r23
 7b2:	67 95       	ror	r22
 7b4:	b7 95       	ror	r27
 7b6:	f1 11       	cpse	r31, r1
 7b8:	f8 cf       	rjmp	.-16     	; 0x7aa <__floatsisf+0x1c>
 7ba:	fa f4       	brpl	.+62     	; 0x7fa <__floatsisf+0x6c>
 7bc:	bb 0f       	add	r27, r27
 7be:	11 f4       	brne	.+4      	; 0x7c4 <__floatsisf+0x36>
 7c0:	60 ff       	sbrs	r22, 0
 7c2:	1b c0       	rjmp	.+54     	; 0x7fa <__floatsisf+0x6c>
 7c4:	6f 5f       	subi	r22, 0xFF	; 255
 7c6:	7f 4f       	sbci	r23, 0xFF	; 255
 7c8:	8f 4f       	sbci	r24, 0xFF	; 255
 7ca:	9f 4f       	sbci	r25, 0xFF	; 255
 7cc:	16 c0       	rjmp	.+44     	; 0x7fa <__floatsisf+0x6c>
 7ce:	88 23       	and	r24, r24
 7d0:	11 f0       	breq	.+4      	; 0x7d6 <__floatsisf+0x48>
 7d2:	96 e9       	ldi	r25, 0x96	; 150
 7d4:	11 c0       	rjmp	.+34     	; 0x7f8 <__floatsisf+0x6a>
 7d6:	77 23       	and	r23, r23
 7d8:	21 f0       	breq	.+8      	; 0x7e2 <__floatsisf+0x54>
 7da:	9e e8       	ldi	r25, 0x8E	; 142
 7dc:	87 2f       	mov	r24, r23
 7de:	76 2f       	mov	r23, r22
 7e0:	05 c0       	rjmp	.+10     	; 0x7ec <__floatsisf+0x5e>
 7e2:	66 23       	and	r22, r22
 7e4:	71 f0       	breq	.+28     	; 0x802 <__floatsisf+0x74>
 7e6:	96 e8       	ldi	r25, 0x86	; 134
 7e8:	86 2f       	mov	r24, r22
 7ea:	70 e0       	ldi	r23, 0x00	; 0
 7ec:	60 e0       	ldi	r22, 0x00	; 0
 7ee:	2a f0       	brmi	.+10     	; 0x7fa <__floatsisf+0x6c>
 7f0:	9a 95       	dec	r25
 7f2:	66 0f       	add	r22, r22
 7f4:	77 1f       	adc	r23, r23
 7f6:	88 1f       	adc	r24, r24
 7f8:	da f7       	brpl	.-10     	; 0x7f0 <__floatsisf+0x62>
 7fa:	88 0f       	add	r24, r24
 7fc:	96 95       	lsr	r25
 7fe:	87 95       	ror	r24
 800:	97 f9       	bld	r25, 7
 802:	08 95       	ret

00000804 <__fp_inf>:
 804:	97 f9       	bld	r25, 7
 806:	9f 67       	ori	r25, 0x7F	; 127
 808:	80 e8       	ldi	r24, 0x80	; 128
 80a:	70 e0       	ldi	r23, 0x00	; 0
 80c:	60 e0       	ldi	r22, 0x00	; 0
 80e:	08 95       	ret

00000810 <__fp_nan>:
 810:	9f ef       	ldi	r25, 0xFF	; 255
 812:	80 ec       	ldi	r24, 0xC0	; 192
 814:	08 95       	ret

00000816 <__fp_pscA>:
 816:	00 24       	eor	r0, r0
 818:	0a 94       	dec	r0
 81a:	16 16       	cp	r1, r22
 81c:	17 06       	cpc	r1, r23
 81e:	18 06       	cpc	r1, r24
 820:	09 06       	cpc	r0, r25
 822:	08 95       	ret

00000824 <__fp_pscB>:
 824:	00 24       	eor	r0, r0
 826:	0a 94       	dec	r0
 828:	12 16       	cp	r1, r18
 82a:	13 06       	cpc	r1, r19
 82c:	14 06       	cpc	r1, r20
 82e:	05 06       	cpc	r0, r21
 830:	08 95       	ret

00000832 <__fp_round>:
 832:	09 2e       	mov	r0, r25
 834:	03 94       	inc	r0
 836:	00 0c       	add	r0, r0
 838:	11 f4       	brne	.+4      	; 0x83e <__fp_round+0xc>
 83a:	88 23       	and	r24, r24
 83c:	52 f0       	brmi	.+20     	; 0x852 <__fp_round+0x20>
 83e:	bb 0f       	add	r27, r27
 840:	40 f4       	brcc	.+16     	; 0x852 <__fp_round+0x20>
 842:	bf 2b       	or	r27, r31
 844:	11 f4       	brne	.+4      	; 0x84a <__fp_round+0x18>
 846:	60 ff       	sbrs	r22, 0
 848:	04 c0       	rjmp	.+8      	; 0x852 <__fp_round+0x20>
 84a:	6f 5f       	subi	r22, 0xFF	; 255
 84c:	7f 4f       	sbci	r23, 0xFF	; 255
 84e:	8f 4f       	sbci	r24, 0xFF	; 255
 850:	9f 4f       	sbci	r25, 0xFF	; 255
 852:	08 95       	ret

00000854 <__fp_split3>:
 854:	57 fd       	sbrc	r21, 7
 856:	90 58       	subi	r25, 0x80	; 128
 858:	44 0f       	add	r20, r20
 85a:	55 1f       	adc	r21, r21
 85c:	59 f0       	breq	.+22     	; 0x874 <__fp_splitA+0x10>
 85e:	5f 3f       	cpi	r21, 0xFF	; 255
 860:	71 f0       	breq	.+28     	; 0x87e <__fp_splitA+0x1a>
 862:	47 95       	ror	r20

00000864 <__fp_splitA>:
 864:	88 0f       	add	r24, r24
 866:	97 fb       	bst	r25, 7
 868:	99 1f       	adc	r25, r25
 86a:	61 f0       	breq	.+24     	; 0x884 <__fp_splitA+0x20>
 86c:	9f 3f       	cpi	r25, 0xFF	; 255
 86e:	79 f0       	breq	.+30     	; 0x88e <__fp_splitA+0x2a>
 870:	87 95       	ror	r24
 872:	08 95       	ret
 874:	12 16       	cp	r1, r18
 876:	13 06       	cpc	r1, r19
 878:	14 06       	cpc	r1, r20
 87a:	55 1f       	adc	r21, r21
 87c:	f2 cf       	rjmp	.-28     	; 0x862 <__fp_split3+0xe>
 87e:	46 95       	lsr	r20
 880:	f1 df       	rcall	.-30     	; 0x864 <__fp_splitA>
 882:	08 c0       	rjmp	.+16     	; 0x894 <__fp_splitA+0x30>
 884:	16 16       	cp	r1, r22
 886:	17 06       	cpc	r1, r23
 888:	18 06       	cpc	r1, r24
 88a:	99 1f       	adc	r25, r25
 88c:	f1 cf       	rjmp	.-30     	; 0x870 <__fp_splitA+0xc>
 88e:	86 95       	lsr	r24
 890:	71 05       	cpc	r23, r1
 892:	61 05       	cpc	r22, r1
 894:	08 94       	sec
 896:	08 95       	ret

00000898 <__fp_zero>:
 898:	e8 94       	clt

0000089a <__fp_szero>:
 89a:	bb 27       	eor	r27, r27
 89c:	66 27       	eor	r22, r22
 89e:	77 27       	eor	r23, r23
 8a0:	cb 01       	movw	r24, r22
 8a2:	97 f9       	bld	r25, 7
 8a4:	08 95       	ret

000008a6 <__mulsf3>:
 8a6:	0b d0       	rcall	.+22     	; 0x8be <__mulsf3x>
 8a8:	c4 cf       	rjmp	.-120    	; 0x832 <__fp_round>
 8aa:	b5 df       	rcall	.-150    	; 0x816 <__fp_pscA>
 8ac:	28 f0       	brcs	.+10     	; 0x8b8 <__mulsf3+0x12>
 8ae:	ba df       	rcall	.-140    	; 0x824 <__fp_pscB>
 8b0:	18 f0       	brcs	.+6      	; 0x8b8 <__mulsf3+0x12>
 8b2:	95 23       	and	r25, r21
 8b4:	09 f0       	breq	.+2      	; 0x8b8 <__mulsf3+0x12>
 8b6:	a6 cf       	rjmp	.-180    	; 0x804 <__fp_inf>
 8b8:	ab cf       	rjmp	.-170    	; 0x810 <__fp_nan>
 8ba:	11 24       	eor	r1, r1
 8bc:	ee cf       	rjmp	.-36     	; 0x89a <__fp_szero>

000008be <__mulsf3x>:
 8be:	ca df       	rcall	.-108    	; 0x854 <__fp_split3>
 8c0:	a0 f3       	brcs	.-24     	; 0x8aa <__mulsf3+0x4>

000008c2 <__mulsf3_pse>:
 8c2:	95 9f       	mul	r25, r21
 8c4:	d1 f3       	breq	.-12     	; 0x8ba <__mulsf3+0x14>
 8c6:	95 0f       	add	r25, r21
 8c8:	50 e0       	ldi	r21, 0x00	; 0
 8ca:	55 1f       	adc	r21, r21
 8cc:	62 9f       	mul	r22, r18
 8ce:	f0 01       	movw	r30, r0
 8d0:	72 9f       	mul	r23, r18
 8d2:	bb 27       	eor	r27, r27
 8d4:	f0 0d       	add	r31, r0
 8d6:	b1 1d       	adc	r27, r1
 8d8:	63 9f       	mul	r22, r19
 8da:	aa 27       	eor	r26, r26
 8dc:	f0 0d       	add	r31, r0
 8de:	b1 1d       	adc	r27, r1
 8e0:	aa 1f       	adc	r26, r26
 8e2:	64 9f       	mul	r22, r20
 8e4:	66 27       	eor	r22, r22
 8e6:	b0 0d       	add	r27, r0
 8e8:	a1 1d       	adc	r26, r1
 8ea:	66 1f       	adc	r22, r22
 8ec:	82 9f       	mul	r24, r18
 8ee:	22 27       	eor	r18, r18
 8f0:	b0 0d       	add	r27, r0
 8f2:	a1 1d       	adc	r26, r1
 8f4:	62 1f       	adc	r22, r18
 8f6:	73 9f       	mul	r23, r19
 8f8:	b0 0d       	add	r27, r0
 8fa:	a1 1d       	adc	r26, r1
 8fc:	62 1f       	adc	r22, r18
 8fe:	83 9f       	mul	r24, r19
 900:	a0 0d       	add	r26, r0
 902:	61 1d       	adc	r22, r1
 904:	22 1f       	adc	r18, r18
 906:	74 9f       	mul	r23, r20
 908:	33 27       	eor	r19, r19
 90a:	a0 0d       	add	r26, r0
 90c:	61 1d       	adc	r22, r1
 90e:	23 1f       	adc	r18, r19
 910:	84 9f       	mul	r24, r20
 912:	60 0d       	add	r22, r0
 914:	21 1d       	adc	r18, r1
 916:	82 2f       	mov	r24, r18
 918:	76 2f       	mov	r23, r22
 91a:	6a 2f       	mov	r22, r26
 91c:	11 24       	eor	r1, r1
 91e:	9f 57       	subi	r25, 0x7F	; 127
 920:	50 40       	sbci	r21, 0x00	; 0
 922:	8a f0       	brmi	.+34     	; 0x946 <__mulsf3_pse+0x84>
 924:	e1 f0       	breq	.+56     	; 0x95e <__mulsf3_pse+0x9c>
 926:	88 23       	and	r24, r24
 928:	4a f0       	brmi	.+18     	; 0x93c <__mulsf3_pse+0x7a>
 92a:	ee 0f       	add	r30, r30
 92c:	ff 1f       	adc	r31, r31
 92e:	bb 1f       	adc	r27, r27
 930:	66 1f       	adc	r22, r22
 932:	77 1f       	adc	r23, r23
 934:	88 1f       	adc	r24, r24
 936:	91 50       	subi	r25, 0x01	; 1
 938:	50 40       	sbci	r21, 0x00	; 0
 93a:	a9 f7       	brne	.-22     	; 0x926 <__mulsf3_pse+0x64>
 93c:	9e 3f       	cpi	r25, 0xFE	; 254
 93e:	51 05       	cpc	r21, r1
 940:	70 f0       	brcs	.+28     	; 0x95e <__mulsf3_pse+0x9c>
 942:	60 cf       	rjmp	.-320    	; 0x804 <__fp_inf>
 944:	aa cf       	rjmp	.-172    	; 0x89a <__fp_szero>
 946:	5f 3f       	cpi	r21, 0xFF	; 255
 948:	ec f3       	brlt	.-6      	; 0x944 <__mulsf3_pse+0x82>
 94a:	98 3e       	cpi	r25, 0xE8	; 232
 94c:	dc f3       	brlt	.-10     	; 0x944 <__mulsf3_pse+0x82>
 94e:	86 95       	lsr	r24
 950:	77 95       	ror	r23
 952:	67 95       	ror	r22
 954:	b7 95       	ror	r27
 956:	f7 95       	ror	r31
 958:	e7 95       	ror	r30
 95a:	9f 5f       	subi	r25, 0xFF	; 255
 95c:	c1 f7       	brne	.-16     	; 0x94e <__mulsf3_pse+0x8c>
 95e:	fe 2b       	or	r31, r30
 960:	88 0f       	add	r24, r24
 962:	91 1d       	adc	r25, r1
 964:	96 95       	lsr	r25
 966:	87 95       	ror	r24
 968:	97 f9       	bld	r25, 7
 96a:	08 95       	ret

0000096c <_exit>:
 96c:	f8 94       	cli

0000096e <__stop_program>:
 96e:	ff cf       	rjmp	.-2      	; 0x96e <__stop_program>
