
ESP8266_wEBSERVER.elf:     file format elf32-avr

Sections:
Idx Name          Size      VMA       LMA       File off  Algn
  0 .data         00000a98  00800200  00000f42  00000fd6  2**0
                  CONTENTS, ALLOC, LOAD, DATA
  1 .text         00000f42  00000000  00000000  00000094  2**1
                  CONTENTS, ALLOC, LOAD, READONLY, CODE
  2 .bss          00000231  00800c98  00800c98  00001a6e  2**0
                  ALLOC
  3 .comment      0000005c  00000000  00000000  00001a6e  2**0
                  CONTENTS, READONLY
  4 .note.gnu.avr.deviceinfo 00000040  00000000  00000000  00001acc  2**2
                  CONTENTS, READONLY
  5 .debug_aranges 00000238  00000000  00000000  00001b0c  2**0
                  CONTENTS, READONLY, DEBUGGING
  6 .debug_info   00003b6f  00000000  00000000  00001d44  2**0
                  CONTENTS, READONLY, DEBUGGING
  7 .debug_abbrev 00000f9c  00000000  00000000  000058b3  2**0
                  CONTENTS, READONLY, DEBUGGING
  8 .debug_line   00001846  00000000  00000000  0000684f  2**0
                  CONTENTS, READONLY, DEBUGGING
  9 .debug_frame  0000088c  00000000  00000000  00008098  2**2
                  CONTENTS, READONLY, DEBUGGING
 10 .debug_str    00001052  00000000  00000000  00008924  2**0
                  CONTENTS, READONLY, DEBUGGING
 11 .debug_loc    00002668  00000000  00000000  00009976  2**0
                  CONTENTS, READONLY, DEBUGGING
 12 .debug_ranges 000002c8  00000000  00000000  0000bfde  2**0
                  CONTENTS, READONLY, DEBUGGING

Disassembly of section .text:

00000000 <__vectors>:
   0:	94 c0       	rjmp	.+296    	; 0x12a <__ctors_end>
   2:	00 00       	nop
   4:	b1 c0       	rjmp	.+354    	; 0x168 <__bad_interrupt>
   6:	00 00       	nop
   8:	af c0       	rjmp	.+350    	; 0x168 <__bad_interrupt>
   a:	00 00       	nop
   c:	ad c0       	rjmp	.+346    	; 0x168 <__bad_interrupt>
   e:	00 00       	nop
  10:	ab c0       	rjmp	.+342    	; 0x168 <__bad_interrupt>
  12:	00 00       	nop
  14:	a9 c0       	rjmp	.+338    	; 0x168 <__bad_interrupt>
  16:	00 00       	nop
  18:	a7 c0       	rjmp	.+334    	; 0x168 <__bad_interrupt>
  1a:	00 00       	nop
  1c:	a5 c0       	rjmp	.+330    	; 0x168 <__bad_interrupt>
  1e:	00 00       	nop
  20:	a3 c0       	rjmp	.+326    	; 0x168 <__bad_interrupt>
  22:	00 00       	nop
  24:	a1 c0       	rjmp	.+322    	; 0x168 <__bad_interrupt>
  26:	00 00       	nop
  28:	9f c0       	rjmp	.+318    	; 0x168 <__bad_interrupt>
  2a:	00 00       	nop
  2c:	9d c0       	rjmp	.+314    	; 0x168 <__bad_interrupt>
  2e:	00 00       	nop
  30:	9b c0       	rjmp	.+310    	; 0x168 <__bad_interrupt>
  32:	00 00       	nop
  34:	99 c0       	rjmp	.+306    	; 0x168 <__bad_interrupt>
  36:	00 00       	nop
  38:	97 c0       	rjmp	.+302    	; 0x168 <__bad_interrupt>
  3a:	00 00       	nop
  3c:	95 c0       	rjmp	.+298    	; 0x168 <__bad_interrupt>
  3e:	00 00       	nop
  40:	93 c0       	rjmp	.+294    	; 0x168 <__bad_interrupt>
  42:	00 00       	nop
  44:	34 c1       	rjmp	.+616    	; 0x2ae <__vector_17>
  46:	00 00       	nop
  48:	8f c0       	rjmp	.+286    	; 0x168 <__bad_interrupt>
  4a:	00 00       	nop
  4c:	8d c0       	rjmp	.+282    	; 0x168 <__bad_interrupt>
  4e:	00 00       	nop
  50:	8b c0       	rjmp	.+278    	; 0x168 <__bad_interrupt>
  52:	00 00       	nop
  54:	89 c0       	rjmp	.+274    	; 0x168 <__bad_interrupt>
  56:	00 00       	nop
  58:	87 c0       	rjmp	.+270    	; 0x168 <__bad_interrupt>
  5a:	00 00       	nop
  5c:	85 c0       	rjmp	.+266    	; 0x168 <__bad_interrupt>
  5e:	00 00       	nop
  60:	83 c0       	rjmp	.+262    	; 0x168 <__bad_interrupt>
  62:	00 00       	nop
  64:	6f c1       	rjmp	.+734    	; 0x344 <__vector_25>
  66:	00 00       	nop
  68:	7f c0       	rjmp	.+254    	; 0x168 <__bad_interrupt>
  6a:	00 00       	nop
  6c:	7d c0       	rjmp	.+250    	; 0x168 <__bad_interrupt>
  6e:	00 00       	nop
  70:	7b c0       	rjmp	.+246    	; 0x168 <__bad_interrupt>
  72:	00 00       	nop
  74:	79 c0       	rjmp	.+242    	; 0x168 <__bad_interrupt>
  76:	00 00       	nop
  78:	77 c0       	rjmp	.+238    	; 0x168 <__bad_interrupt>
  7a:	00 00       	nop
  7c:	75 c0       	rjmp	.+234    	; 0x168 <__bad_interrupt>
  7e:	00 00       	nop
  80:	73 c0       	rjmp	.+230    	; 0x168 <__bad_interrupt>
  82:	00 00       	nop
  84:	71 c0       	rjmp	.+226    	; 0x168 <__bad_interrupt>
  86:	00 00       	nop
  88:	6f c0       	rjmp	.+222    	; 0x168 <__bad_interrupt>
  8a:	00 00       	nop
  8c:	6d c0       	rjmp	.+218    	; 0x168 <__bad_interrupt>
  8e:	00 00       	nop
  90:	a3 c1       	rjmp	.+838    	; 0x3d8 <__vector_36>
  92:	00 00       	nop
  94:	69 c0       	rjmp	.+210    	; 0x168 <__bad_interrupt>
  96:	00 00       	nop
  98:	67 c0       	rjmp	.+206    	; 0x168 <__bad_interrupt>
  9a:	00 00       	nop
  9c:	65 c0       	rjmp	.+202    	; 0x168 <__bad_interrupt>
  9e:	00 00       	nop
  a0:	63 c0       	rjmp	.+198    	; 0x168 <__bad_interrupt>
  a2:	00 00       	nop
  a4:	61 c0       	rjmp	.+194    	; 0x168 <__bad_interrupt>
  a6:	00 00       	nop
  a8:	5f c0       	rjmp	.+190    	; 0x168 <__bad_interrupt>
  aa:	00 00       	nop
  ac:	5d c0       	rjmp	.+186    	; 0x168 <__bad_interrupt>
  ae:	00 00       	nop
  b0:	5b c0       	rjmp	.+182    	; 0x168 <__bad_interrupt>
  b2:	00 00       	nop
  b4:	59 c0       	rjmp	.+178    	; 0x168 <__bad_interrupt>
  b6:	00 00       	nop
  b8:	57 c0       	rjmp	.+174    	; 0x168 <__bad_interrupt>
  ba:	00 00       	nop
  bc:	55 c0       	rjmp	.+170    	; 0x168 <__bad_interrupt>
  be:	00 00       	nop
  c0:	53 c0       	rjmp	.+166    	; 0x168 <__bad_interrupt>
  c2:	00 00       	nop
  c4:	51 c0       	rjmp	.+162    	; 0x168 <__bad_interrupt>
  c6:	00 00       	nop
  c8:	4f c0       	rjmp	.+158    	; 0x168 <__bad_interrupt>
  ca:	00 00       	nop
  cc:	4d c0       	rjmp	.+154    	; 0x168 <__bad_interrupt>
  ce:	00 00       	nop
  d0:	4b c0       	rjmp	.+150    	; 0x168 <__bad_interrupt>
  d2:	00 00       	nop
  d4:	49 c0       	rjmp	.+146    	; 0x168 <__bad_interrupt>
  d6:	00 00       	nop
  d8:	47 c0       	rjmp	.+142    	; 0x168 <__bad_interrupt>
  da:	00 00       	nop
  dc:	45 c0       	rjmp	.+138    	; 0x168 <__bad_interrupt>
  de:	00 00       	nop
  e0:	43 c0       	rjmp	.+134    	; 0x168 <__bad_interrupt>
	...

000000e4 <__trampolines_end>:
  e4:	49 20       	and	r4, r9
  e6:	41 4d       	sbci	r20, 0xD1	; 209
  e8:	20 50       	subi	r18, 0x00	; 0
  ea:	52 45       	sbci	r21, 0x52	; 82
  ec:	44 41       	sbci	r20, 0x14	; 20
  ee:	54 4f       	sbci	r21, 0xF4	; 244
  f0:	52 2c       	mov	r5, r2
  f2:	20 20       	and	r2, r0
  f4:	55 4e       	sbci	r21, 0xE5	; 229
  f6:	53 45       	sbci	r21, 0x53	; 83
  f8:	45 4e       	sbci	r20, 0xE5	; 229
  fa:	20 43       	sbci	r18, 0x30	; 48
  fc:	4f 4d       	sbci	r20, 0xDF	; 223
  fe:	42 41       	sbci	r20, 0x12	; 18
 100:	54 41       	sbci	r21, 0x14	; 20
 102:	4e 54       	subi	r20, 0x4E	; 78
 104:	2e 20       	and	r2, r14
 106:	43 52       	subi	r20, 0x23	; 35
 108:	45 41       	sbci	r20, 0x15	; 21
 10a:	54 45       	sbci	r21, 0x54	; 84
 10c:	44 20       	and	r4, r4
 10e:	42 59       	subi	r20, 0x92	; 146
 110:	20 54       	subi	r18, 0x40	; 64
 112:	48 45       	sbci	r20, 0x58	; 88
 114:	20 55       	subi	r18, 0x50	; 80
 116:	4e 49       	sbci	r20, 0x9E	; 158
 118:	54 45       	sbci	r21, 0x54	; 84
 11a:	44 20       	and	r4, r4
 11c:	53 54       	subi	r21, 0x43	; 67
 11e:	41 54       	subi	r20, 0x41	; 65
 120:	45 53       	subi	r20, 0x35	; 53
 122:	20 44       	sbci	r18, 0x40	; 64
 124:	45 50       	subi	r20, 0x05	; 5
 126:	41 52       	subi	r20, 0x21	; 33
 128:	54 00       	.word	0x0054	; ????

0000012a <__ctors_end>:
 12a:	11 24       	eor	r1, r1
 12c:	1f be       	out	0x3f, r1	; 63
 12e:	cf ef       	ldi	r28, 0xFF	; 255
 130:	d1 e2       	ldi	r29, 0x21	; 33
 132:	de bf       	out	0x3e, r29	; 62
 134:	cd bf       	out	0x3d, r28	; 61
 136:	00 e0       	ldi	r16, 0x00	; 0
 138:	0c bf       	out	0x3c, r16	; 60

0000013a <__do_copy_data>:
 13a:	1c e0       	ldi	r17, 0x0C	; 12
 13c:	a0 e0       	ldi	r26, 0x00	; 0
 13e:	b2 e0       	ldi	r27, 0x02	; 2
 140:	e2 e4       	ldi	r30, 0x42	; 66
 142:	ff e0       	ldi	r31, 0x0F	; 15
 144:	00 e0       	ldi	r16, 0x00	; 0
 146:	0b bf       	out	0x3b, r16	; 59
 148:	02 c0       	rjmp	.+4      	; 0x14e <__do_copy_data+0x14>
 14a:	07 90       	elpm	r0, Z+
 14c:	0d 92       	st	X+, r0
 14e:	a8 39       	cpi	r26, 0x98	; 152
 150:	b1 07       	cpc	r27, r17
 152:	d9 f7       	brne	.-10     	; 0x14a <__do_copy_data+0x10>

00000154 <__do_clear_bss>:
 154:	2e e0       	ldi	r18, 0x0E	; 14
 156:	a8 e9       	ldi	r26, 0x98	; 152
 158:	bc e0       	ldi	r27, 0x0C	; 12
 15a:	01 c0       	rjmp	.+2      	; 0x15e <.do_clear_bss_start>

0000015c <.do_clear_bss_loop>:
 15c:	1d 92       	st	X+, r1

0000015e <.do_clear_bss_start>:
 15e:	a9 3c       	cpi	r26, 0xC9	; 201
 160:	b2 07       	cpc	r27, r18
 162:	e1 f7       	brne	.-8      	; 0x15c <.do_clear_bss_loop>
 164:	0b d3       	rcall	.+1558   	; 0x77c <main>
 166:	eb c6       	rjmp	.+3542   	; 0xf3e <_exit>

00000168 <__bad_interrupt>:
 168:	4b cf       	rjmp	.-362    	; 0x0 <__vectors>

0000016a <_Z10UART_Init0v>:
	//send_command("AT+CWJAP=\"JioFiber 2.4ghz\",\"Mansi5481\"\r\n");
	//RFR_UART1(16000);

	//Created A Server
	send_command("AT+CIPSERVER=1,80\r\n");
	RFR_UART1(1000);
 16a:	87 e6       	ldi	r24, 0x67	; 103
 16c:	90 e0       	ldi	r25, 0x00	; 0
 16e:	90 93 c5 00 	sts	0x00C5, r25	; 0x8000c5 <__TEXT_REGION_LENGTH__+0x7000c5>
 172:	80 93 c4 00 	sts	0x00C4, r24	; 0x8000c4 <__TEXT_REGION_LENGTH__+0x7000c4>
 176:	88 e9       	ldi	r24, 0x98	; 152
 178:	80 93 c1 00 	sts	0x00C1, r24	; 0x8000c1 <__TEXT_REGION_LENGTH__+0x7000c1>
 17c:	08 95       	ret

0000017e <_Z12UART_TxChar0j>:
 17e:	e0 ec       	ldi	r30, 0xC0	; 192
 180:	f0 e0       	ldi	r31, 0x00	; 0
 182:	90 81       	ld	r25, Z
 184:	95 ff       	sbrs	r25, 5
 186:	fd cf       	rjmp	.-6      	; 0x182 <_Z12UART_TxChar0j+0x4>
 188:	80 93 c6 00 	sts	0x00C6, r24	; 0x8000c6 <__TEXT_REGION_LENGTH__+0x7000c6>
 18c:	08 95       	ret

0000018e <_Z12printString0PKc>:
 18e:	cf 93       	push	r28
 190:	df 93       	push	r29
 192:	ec 01       	movw	r28, r24
 194:	88 81       	ld	r24, Y
 196:	88 23       	and	r24, r24
 198:	31 f0       	breq	.+12     	; 0x1a6 <_Z12printString0PKc+0x18>
 19a:	21 96       	adiw	r28, 0x01	; 1
 19c:	90 e0       	ldi	r25, 0x00	; 0
 19e:	ef df       	rcall	.-34     	; 0x17e <_Z12UART_TxChar0j>
 1a0:	89 91       	ld	r24, Y+
 1a2:	81 11       	cpse	r24, r1
 1a4:	fb cf       	rjmp	.-10     	; 0x19c <_Z12printString0PKc+0xe>
 1a6:	df 91       	pop	r29
 1a8:	cf 91       	pop	r28
 1aa:	08 95       	ret

000001ac <_Z8decimel0m>:
 1ac:	8f 92       	push	r8
 1ae:	9f 92       	push	r9
 1b0:	af 92       	push	r10
 1b2:	bf 92       	push	r11
 1b4:	ef 92       	push	r14
 1b6:	ff 92       	push	r15
 1b8:	0f 93       	push	r16
 1ba:	1f 93       	push	r17
 1bc:	cf 93       	push	r28
 1be:	df 93       	push	r29
 1c0:	00 d0       	rcall	.+0      	; 0x1c2 <_Z8decimel0m+0x16>
 1c2:	1f 92       	push	r1
 1c4:	1f 92       	push	r1
 1c6:	cd b7       	in	r28, 0x3d	; 61
 1c8:	de b7       	in	r29, 0x3e	; 62
 1ca:	8e 01       	movw	r16, r28
 1cc:	0f 5f       	subi	r16, 0xFF	; 255
 1ce:	1f 4f       	sbci	r17, 0xFF	; 255
 1d0:	7e 01       	movw	r14, r28
 1d2:	26 e0       	ldi	r18, 0x06	; 6
 1d4:	e2 0e       	add	r14, r18
 1d6:	f1 1c       	adc	r15, r1
 1d8:	0f 2e       	mov	r0, r31
 1da:	fa e0       	ldi	r31, 0x0A	; 10
 1dc:	8f 2e       	mov	r8, r31
 1de:	91 2c       	mov	r9, r1
 1e0:	a1 2c       	mov	r10, r1
 1e2:	b1 2c       	mov	r11, r1
 1e4:	f0 2d       	mov	r31, r0
 1e6:	04 c0       	rjmp	.+8      	; 0x1f0 <_Z8decimel0m+0x44>
 1e8:	8d 81       	ldd	r24, Y+5	; 0x05
 1ea:	80 33       	cpi	r24, 0x30	; 48
 1ec:	81 f0       	breq	.+32     	; 0x20e <_Z8decimel0m+0x62>
 1ee:	1a c0       	rjmp	.+52     	; 0x224 <_Z8decimel0m+0x78>
 1f0:	a5 01       	movw	r20, r10
 1f2:	94 01       	movw	r18, r8
 1f4:	73 d3       	rcall	.+1766   	; 0x8dc <__udivmodsi4>
 1f6:	60 5d       	subi	r22, 0xD0	; 208
 1f8:	f8 01       	movw	r30, r16
 1fa:	61 93       	st	Z+, r22
 1fc:	8f 01       	movw	r16, r30
 1fe:	62 2f       	mov	r22, r18
 200:	73 2f       	mov	r23, r19
 202:	84 2f       	mov	r24, r20
 204:	95 2f       	mov	r25, r21
 206:	ee 15       	cp	r30, r14
 208:	ff 05       	cpc	r31, r15
 20a:	91 f7       	brne	.-28     	; 0x1f0 <_Z8decimel0m+0x44>
 20c:	ed cf       	rjmp	.-38     	; 0x1e8 <_Z8decimel0m+0x3c>
 20e:	8c 81       	ldd	r24, Y+4	; 0x04
 210:	80 33       	cpi	r24, 0x30	; 48
 212:	b9 f4       	brne	.+46     	; 0x242 <_Z8decimel0m+0x96>
 214:	8b 81       	ldd	r24, Y+3	; 0x03
 216:	80 33       	cpi	r24, 0x30	; 48
 218:	b1 f4       	brne	.+44     	; 0x246 <_Z8decimel0m+0x9a>
 21a:	8a 81       	ldd	r24, Y+2	; 0x02
 21c:	80 33       	cpi	r24, 0x30	; 48
 21e:	a9 f4       	brne	.+42     	; 0x24a <_Z8decimel0m+0x9e>
 220:	10 e0       	ldi	r17, 0x00	; 0
 222:	01 c0       	rjmp	.+2      	; 0x226 <_Z8decimel0m+0x7a>
 224:	14 e0       	ldi	r17, 0x04	; 4
 226:	e1 e0       	ldi	r30, 0x01	; 1
 228:	f0 e0       	ldi	r31, 0x00	; 0
 22a:	ec 0f       	add	r30, r28
 22c:	fd 1f       	adc	r31, r29
 22e:	e1 0f       	add	r30, r17
 230:	f1 1d       	adc	r31, r1
 232:	17 fd       	sbrc	r17, 7
 234:	fa 95       	dec	r31
 236:	80 81       	ld	r24, Z
 238:	90 e0       	ldi	r25, 0x00	; 0
 23a:	a1 df       	rcall	.-190    	; 0x17e <_Z12UART_TxChar0j>
 23c:	11 50       	subi	r17, 0x01	; 1
 23e:	9a f7       	brpl	.-26     	; 0x226 <_Z8decimel0m+0x7a>
 240:	06 c0       	rjmp	.+12     	; 0x24e <_Z8decimel0m+0xa2>
 242:	13 e0       	ldi	r17, 0x03	; 3
 244:	f0 cf       	rjmp	.-32     	; 0x226 <_Z8decimel0m+0x7a>
 246:	12 e0       	ldi	r17, 0x02	; 2
 248:	ee cf       	rjmp	.-36     	; 0x226 <_Z8decimel0m+0x7a>
 24a:	11 e0       	ldi	r17, 0x01	; 1
 24c:	ec cf       	rjmp	.-40     	; 0x226 <_Z8decimel0m+0x7a>
 24e:	0f 90       	pop	r0
 250:	0f 90       	pop	r0
 252:	0f 90       	pop	r0
 254:	0f 90       	pop	r0
 256:	0f 90       	pop	r0
 258:	df 91       	pop	r29
 25a:	cf 91       	pop	r28
 25c:	1f 91       	pop	r17
 25e:	0f 91       	pop	r16
 260:	ff 90       	pop	r15
 262:	ef 90       	pop	r14
 264:	bf 90       	pop	r11
 266:	af 90       	pop	r10
 268:	9f 90       	pop	r9
 26a:	8f 90       	pop	r8
 26c:	08 95       	ret

0000026e <_Z10UART_Init1v>:
 26e:	88 e0       	ldi	r24, 0x08	; 8
 270:	90 e0       	ldi	r25, 0x00	; 0
 272:	90 93 cd 00 	sts	0x00CD, r25	; 0x8000cd <__TEXT_REGION_LENGTH__+0x7000cd>
 276:	80 93 cc 00 	sts	0x00CC, r24	; 0x8000cc <__TEXT_REGION_LENGTH__+0x7000cc>
 27a:	88 e9       	ldi	r24, 0x98	; 152
 27c:	80 93 c9 00 	sts	0x00C9, r24	; 0x8000c9 <__TEXT_REGION_LENGTH__+0x7000c9>
 280:	08 95       	ret

00000282 <_Z12UART_TxChar1h>:
 282:	e8 ec       	ldi	r30, 0xC8	; 200
 284:	f0 e0       	ldi	r31, 0x00	; 0
 286:	90 81       	ld	r25, Z
 288:	95 ff       	sbrs	r25, 5
 28a:	fd cf       	rjmp	.-6      	; 0x286 <_Z12UART_TxChar1h+0x4>
 28c:	80 93 ce 00 	sts	0x00CE, r24	; 0x8000ce <__TEXT_REGION_LENGTH__+0x7000ce>
 290:	08 95       	ret

00000292 <_Z12printString1PKc>:
 292:	cf 93       	push	r28
 294:	df 93       	push	r29
 296:	ec 01       	movw	r28, r24
 298:	88 81       	ld	r24, Y
 29a:	88 23       	and	r24, r24
 29c:	29 f0       	breq	.+10     	; 0x2a8 <_Z12printString1PKc+0x16>
 29e:	21 96       	adiw	r28, 0x01	; 1
 2a0:	f0 df       	rcall	.-32     	; 0x282 <_Z12UART_TxChar1h>
 2a2:	89 91       	ld	r24, Y+
 2a4:	81 11       	cpse	r24, r1
 2a6:	fc cf       	rjmp	.-8      	; 0x2a0 <_Z12printString1PKc+0xe>
 2a8:	df 91       	pop	r29
 2aa:	cf 91       	pop	r28
 2ac:	08 95       	ret

000002ae <__vector_17>:
 2ae:	1f 92       	push	r1
 2b0:	0f 92       	push	r0
 2b2:	0f b6       	in	r0, 0x3f	; 63
 2b4:	0f 92       	push	r0
 2b6:	11 24       	eor	r1, r1
 2b8:	8f 93       	push	r24
 2ba:	9f 93       	push	r25
 2bc:	af 93       	push	r26
 2be:	bf 93       	push	r27
 2c0:	80 91 c5 0e 	lds	r24, 0x0EC5	; 0x800ec5 <timer1_millis>
 2c4:	90 91 c6 0e 	lds	r25, 0x0EC6	; 0x800ec6 <timer1_millis+0x1>
 2c8:	a0 91 c7 0e 	lds	r26, 0x0EC7	; 0x800ec7 <timer1_millis+0x2>
 2cc:	b0 91 c8 0e 	lds	r27, 0x0EC8	; 0x800ec8 <timer1_millis+0x3>
 2d0:	01 96       	adiw	r24, 0x01	; 1
 2d2:	a1 1d       	adc	r26, r1
 2d4:	b1 1d       	adc	r27, r1
 2d6:	80 93 c5 0e 	sts	0x0EC5, r24	; 0x800ec5 <timer1_millis>
 2da:	90 93 c6 0e 	sts	0x0EC6, r25	; 0x800ec6 <timer1_millis+0x1>
 2de:	a0 93 c7 0e 	sts	0x0EC7, r26	; 0x800ec7 <timer1_millis+0x2>
 2e2:	b0 93 c8 0e 	sts	0x0EC8, r27	; 0x800ec8 <timer1_millis+0x3>
 2e6:	bf 91       	pop	r27
 2e8:	af 91       	pop	r26
 2ea:	9f 91       	pop	r25
 2ec:	8f 91       	pop	r24
 2ee:	0f 90       	pop	r0
 2f0:	0f be       	out	0x3f, r0	; 63
 2f2:	0f 90       	pop	r0
 2f4:	1f 90       	pop	r1
 2f6:	18 95       	reti

000002f8 <_Z11init_millism>:
 2f8:	20 e4       	ldi	r18, 0x40	; 64
 2fa:	3f e1       	ldi	r19, 0x1F	; 31
 2fc:	40 e0       	ldi	r20, 0x00	; 0
 2fe:	50 e0       	ldi	r21, 0x00	; 0
 300:	ed d2       	rcall	.+1498   	; 0x8dc <__udivmodsi4>
 302:	8a e0       	ldi	r24, 0x0A	; 10
 304:	80 93 81 00 	sts	0x0081, r24	; 0x800081 <__TEXT_REGION_LENGTH__+0x700081>
 308:	bb 27       	eor	r27, r27
 30a:	a5 2f       	mov	r26, r21
 30c:	94 2f       	mov	r25, r20
 30e:	83 2f       	mov	r24, r19
 310:	80 93 89 00 	sts	0x0089, r24	; 0x800089 <__TEXT_REGION_LENGTH__+0x700089>
 314:	20 93 88 00 	sts	0x0088, r18	; 0x800088 <__TEXT_REGION_LENGTH__+0x700088>
 318:	ef e6       	ldi	r30, 0x6F	; 111
 31a:	f0 e0       	ldi	r31, 0x00	; 0
 31c:	80 81       	ld	r24, Z
 31e:	82 60       	ori	r24, 0x02	; 2
 320:	80 83       	st	Z, r24
 322:	08 95       	ret

00000324 <_Z6millisv>:
 324:	60 e0       	ldi	r22, 0x00	; 0
 326:	74 e2       	ldi	r23, 0x24	; 36
 328:	84 ef       	ldi	r24, 0xF4	; 244
 32a:	90 e0       	ldi	r25, 0x00	; 0
 32c:	e5 df       	rcall	.-54     	; 0x2f8 <_Z11init_millism>
 32e:	f8 94       	cli
 330:	60 91 c5 0e 	lds	r22, 0x0EC5	; 0x800ec5 <timer1_millis>
 334:	70 91 c6 0e 	lds	r23, 0x0EC6	; 0x800ec6 <timer1_millis+0x1>
 338:	80 91 c7 0e 	lds	r24, 0x0EC7	; 0x800ec7 <timer1_millis+0x2>
 33c:	90 91 c8 0e 	lds	r25, 0x0EC8	; 0x800ec8 <timer1_millis+0x3>
 340:	78 94       	sei
 342:	08 95       	ret

00000344 <__vector_25>:
 344:	1f 92       	push	r1
 346:	0f 92       	push	r0
 348:	0f b6       	in	r0, 0x3f	; 63
 34a:	0f 92       	push	r0
 34c:	11 24       	eor	r1, r1
 34e:	0b b6       	in	r0, 0x3b	; 59
 350:	0f 92       	push	r0
 352:	2f 93       	push	r18
 354:	3f 93       	push	r19
 356:	4f 93       	push	r20
 358:	5f 93       	push	r21
 35a:	6f 93       	push	r22
 35c:	7f 93       	push	r23
 35e:	8f 93       	push	r24
 360:	9f 93       	push	r25
 362:	af 93       	push	r26
 364:	bf 93       	push	r27
 366:	cf 93       	push	r28
 368:	ef 93       	push	r30
 36a:	ff 93       	push	r31
 36c:	c0 91 c6 00 	lds	r28, 0x00C6	; 0x8000c6 <__TEXT_REGION_LENGTH__+0x7000c6>
 370:	8c 2f       	mov	r24, r28
 372:	90 e0       	ldi	r25, 0x00	; 0
 374:	04 df       	rcall	.-504    	; 0x17e <_Z12UART_TxChar0j>
 376:	80 91 a3 0e 	lds	r24, 0x0EA3	; 0x800ea3 <RX_Wr_Index_UART0>
 37a:	e8 2f       	mov	r30, r24
 37c:	f0 e0       	ldi	r31, 0x00	; 0
 37e:	ec 55       	subi	r30, 0x5C	; 92
 380:	f1 4f       	sbci	r31, 0xF1	; 241
 382:	c0 83       	st	Z, r28
 384:	8f 5f       	subi	r24, 0xFF	; 255
 386:	81 32       	cpi	r24, 0x21	; 33
 388:	18 f4       	brcc	.+6      	; 0x390 <__vector_25+0x4c>
 38a:	80 93 a3 0e 	sts	0x0EA3, r24	; 0x800ea3 <RX_Wr_Index_UART0>
 38e:	02 c0       	rjmp	.+4      	; 0x394 <__vector_25+0x50>
 390:	10 92 a3 0e 	sts	0x0EA3, r1	; 0x800ea3 <RX_Wr_Index_UART0>
 394:	80 91 a2 0e 	lds	r24, 0x0EA2	; 0x800ea2 <RX_Counter_UART0>
 398:	8f 5f       	subi	r24, 0xFF	; 255
 39a:	81 32       	cpi	r24, 0x21	; 33
 39c:	18 f4       	brcc	.+6      	; 0x3a4 <__vector_25+0x60>
 39e:	80 93 a2 0e 	sts	0x0EA2, r24	; 0x800ea2 <RX_Counter_UART0>
 3a2:	06 c0       	rjmp	.+12     	; 0x3b0 <__vector_25+0x6c>
 3a4:	80 e2       	ldi	r24, 0x20	; 32
 3a6:	80 93 a2 0e 	sts	0x0EA2, r24	; 0x800ea2 <RX_Counter_UART0>
 3aa:	81 e0       	ldi	r24, 0x01	; 1
 3ac:	80 93 a1 0e 	sts	0x0EA1, r24	; 0x800ea1 <RX_Buffer_Overflow_UART0>
 3b0:	ff 91       	pop	r31
 3b2:	ef 91       	pop	r30
 3b4:	cf 91       	pop	r28
 3b6:	bf 91       	pop	r27
 3b8:	af 91       	pop	r26
 3ba:	9f 91       	pop	r25
 3bc:	8f 91       	pop	r24
 3be:	7f 91       	pop	r23
 3c0:	6f 91       	pop	r22
 3c2:	5f 91       	pop	r21
 3c4:	4f 91       	pop	r20
 3c6:	3f 91       	pop	r19
 3c8:	2f 91       	pop	r18
 3ca:	0f 90       	pop	r0
 3cc:	0b be       	out	0x3b, r0	; 59
 3ce:	0f 90       	pop	r0
 3d0:	0f be       	out	0x3f, r0	; 63
 3d2:	0f 90       	pop	r0
 3d4:	1f 90       	pop	r1
 3d6:	18 95       	reti

000003d8 <__vector_36>:
 3d8:	1f 92       	push	r1
 3da:	0f 92       	push	r0
 3dc:	0f b6       	in	r0, 0x3f	; 63
 3de:	0f 92       	push	r0
 3e0:	11 24       	eor	r1, r1
 3e2:	0b b6       	in	r0, 0x3b	; 59
 3e4:	0f 92       	push	r0
 3e6:	8f 93       	push	r24
 3e8:	9f 93       	push	r25
 3ea:	ef 93       	push	r30
 3ec:	ff 93       	push	r31
 3ee:	90 91 ce 00 	lds	r25, 0x00CE	; 0x8000ce <__TEXT_REGION_LENGTH__+0x7000ce>
 3f2:	90 93 9d 0d 	sts	0x0D9D, r25	; 0x800d9d <rx_byte>
 3f6:	80 91 a1 0d 	lds	r24, 0x0DA1	; 0x800da1 <RX_Wr_Index_UART1>
 3fa:	e8 2f       	mov	r30, r24
 3fc:	f0 e0       	ldi	r31, 0x00	; 0
 3fe:	ee 55       	subi	r30, 0x5E	; 94
 400:	f2 4f       	sbci	r31, 0xF2	; 242
 402:	90 83       	st	Z, r25
 404:	8f 5f       	subi	r24, 0xFF	; 255
 406:	80 93 a1 0d 	sts	0x0DA1, r24	; 0x800da1 <RX_Wr_Index_UART1>
 40a:	80 91 9f 0d 	lds	r24, 0x0D9F	; 0x800d9f <RX_Counter_UART1>
 40e:	8f 5f       	subi	r24, 0xFF	; 255
 410:	80 93 9f 0d 	sts	0x0D9F, r24	; 0x800d9f <RX_Counter_UART1>
 414:	80 93 9e 0d 	sts	0x0D9E, r24	; 0x800d9e <RX_No_of_byte_UART1>
 418:	ff 91       	pop	r31
 41a:	ef 91       	pop	r30
 41c:	9f 91       	pop	r25
 41e:	8f 91       	pop	r24
 420:	0f 90       	pop	r0
 422:	0b be       	out	0x3b, r0	; 59
 424:	0f 90       	pop	r0
 426:	0f be       	out	0x3f, r0	; 63
 428:	0f 90       	pop	r0
 42a:	1f 90       	pop	r1
 42c:	18 95       	reti

0000042e <_Z13getchar_UART1v>:
 42e:	90 91 a0 0d 	lds	r25, 0x0DA0	; 0x800da0 <RX_Rd_Index_UART1>
 432:	e9 2f       	mov	r30, r25
 434:	f0 e0       	ldi	r31, 0x00	; 0
 436:	ee 55       	subi	r30, 0x5E	; 94
 438:	f2 4f       	sbci	r31, 0xF2	; 242
 43a:	80 81       	ld	r24, Z
 43c:	9f 5f       	subi	r25, 0xFF	; 255
 43e:	90 93 a0 0d 	sts	0x0DA0, r25	; 0x800da0 <RX_Rd_Index_UART1>
 442:	90 91 9f 0d 	lds	r25, 0x0D9F	; 0x800d9f <RX_Counter_UART1>
 446:	99 23       	and	r25, r25
 448:	19 f0       	breq	.+6      	; 0x450 <_Z13getchar_UART1v+0x22>
 44a:	91 50       	subi	r25, 0x01	; 1
 44c:	90 93 9f 0d 	sts	0x0D9F, r25	; 0x800d9f <RX_Counter_UART1>
 450:	08 95       	ret

00000452 <_Z15getstring_UART1v>:
 452:	cf 93       	push	r28
 454:	8c e0       	ldi	r24, 0x0C	; 12
 456:	92 e0       	ldi	r25, 0x02	; 2
 458:	9a de       	rcall	.-716    	; 0x18e <_Z12printString0PKc>
 45a:	60 91 9e 0d 	lds	r22, 0x0D9E	; 0x800d9e <RX_No_of_byte_UART1>
 45e:	70 e0       	ldi	r23, 0x00	; 0
 460:	80 e0       	ldi	r24, 0x00	; 0
 462:	90 e0       	ldi	r25, 0x00	; 0
 464:	a3 de       	rcall	.-698    	; 0x1ac <_Z8decimel0m>
 466:	8f e7       	ldi	r24, 0x7F	; 127
 468:	97 e0       	ldi	r25, 0x07	; 7
 46a:	91 de       	rcall	.-734    	; 0x18e <_Z12printString0PKc>
 46c:	8f ef       	ldi	r24, 0xFF	; 255
 46e:	ee e9       	ldi	r30, 0x9E	; 158
 470:	fc e0       	ldi	r31, 0x0C	; 12
 472:	df 01       	movw	r26, r30
 474:	1d 92       	st	X+, r1
 476:	8a 95       	dec	r24
 478:	e9 f7       	brne	.-6      	; 0x474 <_Z15getstring_UART1v+0x22>
 47a:	80 91 9f 0d 	lds	r24, 0x0D9F	; 0x800d9f <RX_Counter_UART1>
 47e:	88 23       	and	r24, r24
 480:	61 f0       	breq	.+24     	; 0x49a <_Z15getstring_UART1v+0x48>
 482:	c0 e0       	ldi	r28, 0x00	; 0
 484:	d4 df       	rcall	.-88     	; 0x42e <_Z13getchar_UART1v>
 486:	ec 2f       	mov	r30, r28
 488:	f0 e0       	ldi	r31, 0x00	; 0
 48a:	e2 56       	subi	r30, 0x62	; 98
 48c:	f3 4f       	sbci	r31, 0xF3	; 243
 48e:	80 83       	st	Z, r24
 490:	cf 5f       	subi	r28, 0xFF	; 255
 492:	80 91 9f 0d 	lds	r24, 0x0D9F	; 0x800d9f <RX_Counter_UART1>
 496:	81 11       	cpse	r24, r1
 498:	f5 cf       	rjmp	.-22     	; 0x484 <_Z15getstring_UART1v+0x32>
 49a:	8e e9       	ldi	r24, 0x9E	; 158
 49c:	9c e0       	ldi	r25, 0x0C	; 12
 49e:	77 de       	rcall	.-786    	; 0x18e <_Z12printString0PKc>
 4a0:	cf 91       	pop	r28
 4a2:	08 95       	ret

000004a4 <_Z13search_bufferPKc>:
 4a4:	ee e9       	ldi	r30, 0x9E	; 158
 4a6:	fc e0       	ldi	r31, 0x0C	; 12
 4a8:	01 90       	ld	r0, Z+
 4aa:	00 20       	and	r0, r0
 4ac:	e9 f7       	brne	.-6      	; 0x4a8 <_Z13search_bufferPKc+0x4>
 4ae:	31 97       	sbiw	r30, 0x01	; 1
 4b0:	ee 59       	subi	r30, 0x9E	; 158
 4b2:	fc 40       	sbci	r31, 0x0C	; 12
 4b4:	ef 3f       	cpi	r30, 0xFF	; 255
 4b6:	f1 05       	cpc	r31, r1
 4b8:	2c f4       	brge	.+10     	; 0x4c4 <_Z13search_bufferPKc+0x20>
 4ba:	bc 01       	movw	r22, r24
 4bc:	8e e9       	ldi	r24, 0x9E	; 158
 4be:	9c e0       	ldi	r25, 0x0C	; 12
 4c0:	49 d2       	rcall	.+1170   	; 0x954 <strstr>
 4c2:	9c 01       	movw	r18, r24
 4c4:	c9 01       	movw	r24, r18
 4c6:	08 95       	ret

000004c8 <_Z9RFR_UART1j>:
 4c8:	8f 92       	push	r8
 4ca:	9f 92       	push	r9
 4cc:	af 92       	push	r10
 4ce:	bf 92       	push	r11
 4d0:	cf 92       	push	r12
 4d2:	df 92       	push	r13
 4d4:	ef 92       	push	r14
 4d6:	ff 92       	push	r15
 4d8:	cf 93       	push	r28
 4da:	6c 01       	movw	r12, r24
 4dc:	23 df       	rcall	.-442    	; 0x324 <_Z6millisv>
 4de:	4b 01       	movw	r8, r22
 4e0:	5c 01       	movw	r10, r24
 4e2:	8f ef       	ldi	r24, 0xFF	; 255
 4e4:	ee e9       	ldi	r30, 0x9E	; 158
 4e6:	fc e0       	ldi	r31, 0x0C	; 12
 4e8:	df 01       	movw	r26, r30
 4ea:	1d 92       	st	X+, r1
 4ec:	8a 95       	dec	r24
 4ee:	e9 f7       	brne	.-6      	; 0x4ea <_Z9RFR_UART1j+0x22>
 4f0:	c0 e0       	ldi	r28, 0x00	; 0
 4f2:	e1 2c       	mov	r14, r1
 4f4:	f1 2c       	mov	r15, r1
 4f6:	16 df       	rcall	.-468    	; 0x324 <_Z6millisv>
 4f8:	dc 01       	movw	r26, r24
 4fa:	cb 01       	movw	r24, r22
 4fc:	88 19       	sub	r24, r8
 4fe:	99 09       	sbc	r25, r9
 500:	aa 09       	sbc	r26, r10
 502:	bb 09       	sbc	r27, r11
 504:	8c 15       	cp	r24, r12
 506:	9d 05       	cpc	r25, r13
 508:	ae 05       	cpc	r26, r14
 50a:	bf 05       	cpc	r27, r15
 50c:	60 f4       	brcc	.+24     	; 0x526 <_Z9RFR_UART1j+0x5e>
 50e:	80 91 9f 0d 	lds	r24, 0x0D9F	; 0x800d9f <RX_Counter_UART1>
 512:	88 23       	and	r24, r24
 514:	81 f3       	breq	.-32     	; 0x4f6 <_Z9RFR_UART1j+0x2e>
 516:	8b df       	rcall	.-234    	; 0x42e <_Z13getchar_UART1v>
 518:	ec 2f       	mov	r30, r28
 51a:	f0 e0       	ldi	r31, 0x00	; 0
 51c:	e2 56       	subi	r30, 0x62	; 98
 51e:	f3 4f       	sbci	r31, 0xF3	; 243
 520:	80 83       	st	Z, r24
 522:	cf 5f       	subi	r28, 0xFF	; 255
 524:	e8 cf       	rjmp	.-48     	; 0x4f6 <_Z9RFR_UART1j+0x2e>
 526:	c1 11       	cpse	r28, r1
 528:	03 c0       	rjmp	.+6      	; 0x530 <_Z9RFR_UART1j+0x68>
 52a:	82 e0       	ldi	r24, 0x02	; 2
 52c:	90 e0       	ldi	r25, 0x00	; 0
 52e:	02 c0       	rjmp	.+4      	; 0x534 <_Z9RFR_UART1j+0x6c>
 530:	80 e0       	ldi	r24, 0x00	; 0
 532:	90 e0       	ldi	r25, 0x00	; 0
 534:	cf 91       	pop	r28
 536:	ff 90       	pop	r15
 538:	ef 90       	pop	r14
 53a:	df 90       	pop	r13
 53c:	cf 90       	pop	r12
 53e:	bf 90       	pop	r11
 540:	af 90       	pop	r10
 542:	9f 90       	pop	r9
 544:	8f 90       	pop	r8
 546:	08 95       	ret

00000548 <_Z9RFR_UART1PKcj>:
 548:	8f 92       	push	r8
 54a:	9f 92       	push	r9
 54c:	af 92       	push	r10
 54e:	bf 92       	push	r11
 550:	cf 92       	push	r12
 552:	df 92       	push	r13
 554:	ef 92       	push	r14
 556:	ff 92       	push	r15
 558:	1f 93       	push	r17
 55a:	cf 93       	push	r28
 55c:	df 93       	push	r29
 55e:	ec 01       	movw	r28, r24
 560:	6b 01       	movw	r12, r22
 562:	e0 de       	rcall	.-576    	; 0x324 <_Z6millisv>
 564:	4b 01       	movw	r8, r22
 566:	5c 01       	movw	r10, r24
 568:	8f ef       	ldi	r24, 0xFF	; 255
 56a:	ee e9       	ldi	r30, 0x9E	; 158
 56c:	fc e0       	ldi	r31, 0x0C	; 12
 56e:	df 01       	movw	r26, r30
 570:	1d 92       	st	X+, r1
 572:	8a 95       	dec	r24
 574:	e9 f7       	brne	.-6      	; 0x570 <_Z9RFR_UART1PKcj+0x28>
 576:	10 e0       	ldi	r17, 0x00	; 0
 578:	e1 2c       	mov	r14, r1
 57a:	f1 2c       	mov	r15, r1
 57c:	d3 de       	rcall	.-602    	; 0x324 <_Z6millisv>
 57e:	dc 01       	movw	r26, r24
 580:	cb 01       	movw	r24, r22
 582:	88 19       	sub	r24, r8
 584:	99 09       	sbc	r25, r9
 586:	aa 09       	sbc	r26, r10
 588:	bb 09       	sbc	r27, r11
 58a:	8c 15       	cp	r24, r12
 58c:	9d 05       	cpc	r25, r13
 58e:	ae 05       	cpc	r26, r14
 590:	bf 05       	cpc	r27, r15
 592:	80 f4       	brcc	.+32     	; 0x5b4 <_Z9RFR_UART1PKcj+0x6c>
 594:	80 91 9f 0d 	lds	r24, 0x0D9F	; 0x800d9f <RX_Counter_UART1>
 598:	88 23       	and	r24, r24
 59a:	81 f3       	breq	.-32     	; 0x57c <_Z9RFR_UART1PKcj+0x34>
 59c:	48 df       	rcall	.-368    	; 0x42e <_Z13getchar_UART1v>
 59e:	e1 2f       	mov	r30, r17
 5a0:	f0 e0       	ldi	r31, 0x00	; 0
 5a2:	e2 56       	subi	r30, 0x62	; 98
 5a4:	f3 4f       	sbci	r31, 0xF3	; 243
 5a6:	80 83       	st	Z, r24
 5a8:	1f 5f       	subi	r17, 0xFF	; 255
 5aa:	ce 01       	movw	r24, r28
 5ac:	7b df       	rcall	.-266    	; 0x4a4 <_Z13search_bufferPKc>
 5ae:	89 2b       	or	r24, r25
 5b0:	29 f3       	breq	.-54     	; 0x57c <_Z9RFR_UART1PKcj+0x34>
 5b2:	05 c0       	rjmp	.+10     	; 0x5be <_Z9RFR_UART1PKcj+0x76>
 5b4:	11 11       	cpse	r17, r1
 5b6:	06 c0       	rjmp	.+12     	; 0x5c4 <_Z9RFR_UART1PKcj+0x7c>
 5b8:	82 e0       	ldi	r24, 0x02	; 2
 5ba:	90 e0       	ldi	r25, 0x00	; 0
 5bc:	05 c0       	rjmp	.+10     	; 0x5c8 <_Z9RFR_UART1PKcj+0x80>
 5be:	81 e0       	ldi	r24, 0x01	; 1
 5c0:	90 e0       	ldi	r25, 0x00	; 0
 5c2:	02 c0       	rjmp	.+4      	; 0x5c8 <_Z9RFR_UART1PKcj+0x80>
 5c4:	80 e0       	ldi	r24, 0x00	; 0
 5c6:	90 e0       	ldi	r25, 0x00	; 0
 5c8:	df 91       	pop	r29
 5ca:	cf 91       	pop	r28
 5cc:	1f 91       	pop	r17
 5ce:	ff 90       	pop	r15
 5d0:	ef 90       	pop	r14
 5d2:	df 90       	pop	r13
 5d4:	cf 90       	pop	r12
 5d6:	bf 90       	pop	r11
 5d8:	af 90       	pop	r10
 5da:	9f 90       	pop	r9
 5dc:	8f 90       	pop	r8
 5de:	08 95       	ret

000005e0 <_Z26getstring_ESP8266FORSERVERPc>:
 5e0:	cf 93       	push	r28
 5e2:	df 93       	push	r29
 5e4:	ec 01       	movw	r28, r24
 5e6:	8f ef       	ldi	r24, 0xFF	; 255
 5e8:	ee e9       	ldi	r30, 0x9E	; 158
 5ea:	fc e0       	ldi	r31, 0x0C	; 12
 5ec:	df 01       	movw	r26, r30
 5ee:	1d 92       	st	X+, r1
 5f0:	8a 95       	dec	r24
 5f2:	e9 f7       	brne	.-6      	; 0x5ee <_Z26getstring_ESP8266FORSERVERPc+0xe>
 5f4:	8e ee       	ldi	r24, 0xEE	; 238
 5f6:	94 e0       	ldi	r25, 0x04	; 4
 5f8:	ca dd       	rcall	.-1132   	; 0x18e <_Z12printString0PKc>
 5fa:	80 e2       	ldi	r24, 0x20	; 32
 5fc:	95 e0       	ldi	r25, 0x05	; 5
 5fe:	c7 dd       	rcall	.-1138   	; 0x18e <_Z12printString0PKc>
 600:	ce 01       	movw	r24, r28
 602:	c5 dd       	rcall	.-1142   	; 0x18e <_Z12printString0PKc>
 604:	8f e7       	ldi	r24, 0x7F	; 127
 606:	97 e0       	ldi	r25, 0x07	; 7
 608:	c2 dd       	rcall	.-1148   	; 0x18e <_Z12printString0PKc>
 60a:	c0 e0       	ldi	r28, 0x00	; 0
 60c:	80 91 9a 0c 	lds	r24, 0x0C9A	; 0x800c9a <flag>
 610:	90 91 9b 0c 	lds	r25, 0x0C9B	; 0x800c9b <flag+0x1>
 614:	a0 91 9c 0c 	lds	r26, 0x0C9C	; 0x800c9c <flag+0x2>
 618:	b0 91 9d 0c 	lds	r27, 0x0C9D	; 0x800c9d <flag+0x3>
 61c:	89 2b       	or	r24, r25
 61e:	8a 2b       	or	r24, r26
 620:	8b 2b       	or	r24, r27
 622:	09 f0       	breq	.+2      	; 0x626 <_Z26getstring_ESP8266FORSERVERPc+0x46>
 624:	4c c0       	rjmp	.+152    	; 0x6be <_Z26getstring_ESP8266FORSERVERPc+0xde>
 626:	03 df       	rcall	.-506    	; 0x42e <_Z13getchar_UART1v>
 628:	ec 2f       	mov	r30, r28
 62a:	f0 e0       	ldi	r31, 0x00	; 0
 62c:	e2 56       	subi	r30, 0x62	; 98
 62e:	f3 4f       	sbci	r31, 0xF3	; 243
 630:	80 83       	st	Z, r24
 632:	cf 5f       	subi	r28, 0xFF	; 255
 634:	6c e4       	ldi	r22, 0x4C	; 76
 636:	75 e0       	ldi	r23, 0x05	; 5
 638:	8e e9       	ldi	r24, 0x9E	; 158
 63a:	9c e0       	ldi	r25, 0x0C	; 12
 63c:	8b d1       	rcall	.+790    	; 0x954 <strstr>
 63e:	89 2b       	or	r24, r25
 640:	29 f3       	breq	.-54     	; 0x60c <_Z26getstring_ESP8266FORSERVERPc+0x2c>
 642:	87 e5       	ldi	r24, 0x57	; 87
 644:	95 e0       	ldi	r25, 0x05	; 5
 646:	a3 dd       	rcall	.-1210   	; 0x18e <_Z12printString0PKc>
 648:	67 e7       	ldi	r22, 0x77	; 119
 64a:	75 e0       	ldi	r23, 0x05	; 5
 64c:	8e e9       	ldi	r24, 0x9E	; 158
 64e:	9c e0       	ldi	r25, 0x0C	; 12
 650:	81 d1       	rcall	.+770    	; 0x954 <strstr>
 652:	fc 01       	movw	r30, r24
 654:	85 81       	ldd	r24, Z+5	; 0x05
 656:	90 e0       	ldi	r25, 0x00	; 0
 658:	90 93 99 0c 	sts	0x0C99, r25	; 0x800c99 <__data_end+0x1>
 65c:	80 93 98 0c 	sts	0x0C98, r24	; 0x800c98 <__data_end>
 660:	8c e7       	ldi	r24, 0x7C	; 124
 662:	95 e0       	ldi	r25, 0x05	; 5
 664:	94 dd       	rcall	.-1240   	; 0x18e <_Z12printString0PKc>
 666:	80 91 98 0c 	lds	r24, 0x0C98	; 0x800c98 <__data_end>
 66a:	90 91 99 0c 	lds	r25, 0x0C99	; 0x800c99 <__data_end+0x1>
 66e:	87 dd       	rcall	.-1266   	; 0x17e <_Z12UART_TxChar0j>
 670:	81 e0       	ldi	r24, 0x01	; 1
 672:	90 e0       	ldi	r25, 0x00	; 0
 674:	a0 e0       	ldi	r26, 0x00	; 0
 676:	b0 e0       	ldi	r27, 0x00	; 0
 678:	80 93 9a 0c 	sts	0x0C9A, r24	; 0x800c9a <flag>
 67c:	90 93 9b 0c 	sts	0x0C9B, r25	; 0x800c9b <flag+0x1>
 680:	a0 93 9c 0c 	sts	0x0C9C, r26	; 0x800c9c <flag+0x2>
 684:	b0 93 9d 0c 	sts	0x0C9D, r27	; 0x800c9d <flag+0x3>
 688:	8f e7       	ldi	r24, 0x7F	; 127
 68a:	97 e0       	ldi	r25, 0x07	; 7
 68c:	80 dd       	rcall	.-1280   	; 0x18e <_Z12printString0PKc>
 68e:	60 91 9a 0c 	lds	r22, 0x0C9A	; 0x800c9a <flag>
 692:	70 91 9b 0c 	lds	r23, 0x0C9B	; 0x800c9b <flag+0x1>
 696:	80 91 9c 0c 	lds	r24, 0x0C9C	; 0x800c9c <flag+0x2>
 69a:	90 91 9d 0c 	lds	r25, 0x0C9D	; 0x800c9d <flag+0x3>
 69e:	86 dd       	rcall	.-1268   	; 0x1ac <_Z8decimel0m>
 6a0:	8f e7       	ldi	r24, 0x7F	; 127
 6a2:	97 e0       	ldi	r25, 0x07	; 7
 6a4:	74 dd       	rcall	.-1304   	; 0x18e <_Z12printString0PKc>
 6a6:	8f ef       	ldi	r24, 0xFF	; 255
 6a8:	e2 ea       	ldi	r30, 0xA2	; 162
 6aa:	fd e0       	ldi	r31, 0x0D	; 13
 6ac:	df 01       	movw	r26, r30
 6ae:	1d 92       	st	X+, r1
 6b0:	8a 95       	dec	r24
 6b2:	e9 f7       	brne	.-6      	; 0x6ae <_Z26getstring_ESP8266FORSERVERPc+0xce>
 6b4:	61 e0       	ldi	r22, 0x01	; 1
 6b6:	70 e0       	ldi	r23, 0x00	; 0
 6b8:	80 e0       	ldi	r24, 0x00	; 0
 6ba:	90 e0       	ldi	r25, 0x00	; 0
 6bc:	03 c0       	rjmp	.+6      	; 0x6c4 <_Z26getstring_ESP8266FORSERVERPc+0xe4>
 6be:	60 e0       	ldi	r22, 0x00	; 0
 6c0:	70 e0       	ldi	r23, 0x00	; 0
 6c2:	cb 01       	movw	r24, r22
 6c4:	df 91       	pop	r29
 6c6:	cf 91       	pop	r28
 6c8:	08 95       	ret

000006ca <_Z33esp8266_serverdatatoclientcipsendv>:
 6ca:	0f 93       	push	r16
 6cc:	1f 93       	push	r17
 6ce:	cf 93       	push	r28
 6d0:	df 93       	push	r29
 6d2:	cd b7       	in	r28, 0x3d	; 61
 6d4:	de b7       	in	r29, 0x3e	; 62
 6d6:	2f 97       	sbiw	r28, 0x0f	; 15
 6d8:	0f b6       	in	r0, 0x3f	; 63
 6da:	f8 94       	cli
 6dc:	de bf       	out	0x3e, r29	; 62
 6de:	0f be       	out	0x3f, r0	; 63
 6e0:	cd bf       	out	0x3d, r28	; 61
 6e2:	8d ed       	ldi	r24, 0xDD	; 221
 6e4:	95 e0       	ldi	r25, 0x05	; 5
 6e6:	53 dd       	rcall	.-1370   	; 0x18e <_Z12printString0PKc>
 6e8:	1f 92       	push	r1
 6ea:	85 e4       	ldi	r24, 0x45	; 69
 6ec:	8f 93       	push	r24
 6ee:	80 91 98 0c 	lds	r24, 0x0C98	; 0x800c98 <__data_end>
 6f2:	90 91 99 0c 	lds	r25, 0x0C99	; 0x800c99 <__data_end+0x1>
 6f6:	c0 97       	sbiw	r24, 0x30	; 48
 6f8:	9f 93       	push	r25
 6fa:	8f 93       	push	r24
 6fc:	8b e1       	ldi	r24, 0x1B	; 27
 6fe:	96 e0       	ldi	r25, 0x06	; 6
 700:	9f 93       	push	r25
 702:	8f 93       	push	r24
 704:	8e 01       	movw	r16, r28
 706:	0f 5f       	subi	r16, 0xFF	; 255
 708:	1f 4f       	sbci	r17, 0xFF	; 255
 70a:	1f 93       	push	r17
 70c:	0f 93       	push	r16
 70e:	3c d1       	rcall	.+632    	; 0x988 <sprintf>
 710:	8e e2       	ldi	r24, 0x2E	; 46
 712:	96 e0       	ldi	r25, 0x06	; 6
 714:	3c dd       	rcall	.-1416   	; 0x18e <_Z12printString0PKc>
 716:	80 91 98 0c 	lds	r24, 0x0C98	; 0x800c98 <__data_end>
 71a:	90 91 99 0c 	lds	r25, 0x0C99	; 0x800c99 <__data_end+0x1>
 71e:	2f dd       	rcall	.-1442   	; 0x17e <_Z12UART_TxChar0j>
 720:	8f e7       	ldi	r24, 0x7F	; 127
 722:	97 e0       	ldi	r25, 0x07	; 7
 724:	34 dd       	rcall	.-1432   	; 0x18e <_Z12printString0PKc>
 726:	c8 01       	movw	r24, r16
 728:	b4 dd       	rcall	.-1176   	; 0x292 <_Z12printString1PKc>
 72a:	60 ed       	ldi	r22, 0xD0	; 208
 72c:	77 e0       	ldi	r23, 0x07	; 7
 72e:	8e e3       	ldi	r24, 0x3E	; 62
 730:	96 e0       	ldi	r25, 0x06	; 6
 732:	0a df       	rcall	.-492    	; 0x548 <_Z9RFR_UART1PKcj>
 734:	8e e9       	ldi	r24, 0x9E	; 158
 736:	9c e0       	ldi	r25, 0x0C	; 12
 738:	2a dd       	rcall	.-1452   	; 0x18e <_Z12printString0PKc>
 73a:	0f b6       	in	r0, 0x3f	; 63
 73c:	f8 94       	cli
 73e:	de bf       	out	0x3e, r29	; 62
 740:	0f be       	out	0x3f, r0	; 63
 742:	cd bf       	out	0x3d, r28	; 61
 744:	2f 96       	adiw	r28, 0x0f	; 15
 746:	0f b6       	in	r0, 0x3f	; 63
 748:	f8 94       	cli
 74a:	de bf       	out	0x3e, r29	; 62
 74c:	0f be       	out	0x3f, r0	; 63
 74e:	cd bf       	out	0x3d, r28	; 61
 750:	df 91       	pop	r29
 752:	cf 91       	pop	r28
 754:	1f 91       	pop	r17
 756:	0f 91       	pop	r16
 758:	08 95       	ret

0000075a <_Z19esp8266_webpagedatav>:
 75a:	80 e4       	ldi	r24, 0x40	; 64
 75c:	96 e0       	ldi	r25, 0x06	; 6
 75e:	17 dd       	rcall	.-1490   	; 0x18e <_Z12printString0PKc>
 760:	84 ee       	ldi	r24, 0xE4	; 228
 762:	90 e0       	ldi	r25, 0x00	; 0
 764:	96 dd       	rcall	.-1236   	; 0x292 <_Z12printString1PKc>
 766:	60 ed       	ldi	r22, 0xD0	; 208
 768:	77 e0       	ldi	r23, 0x07	; 7
 76a:	81 e7       	ldi	r24, 0x71	; 113
 76c:	96 e0       	ldi	r25, 0x06	; 6
 76e:	ec de       	rcall	.-552    	; 0x548 <_Z9RFR_UART1PKcj>
 770:	01 97       	sbiw	r24, 0x01	; 1
 772:	19 f4       	brne	.+6      	; 0x77a <_Z19esp8266_webpagedatav+0x20>
 774:	8e e9       	ldi	r24, 0x9E	; 158
 776:	9c e0       	ldi	r25, 0x0C	; 12
 778:	0a cd       	rjmp	.-1516   	; 0x18e <_Z12printString0PKc>
 77a:	08 95       	ret

0000077c <main>:
		</script>
		</html>\r\n";
				*/
		
		int main(void)
		{
 77c:	cf 93       	push	r28
 77e:	df 93       	push	r29
 780:	cd b7       	in	r28, 0x3d	; 61
 782:	de b7       	in	r29, 0x3e	; 62
 784:	a8 97       	sbiw	r28, 0x28	; 40
 786:	0f b6       	in	r0, 0x3f	; 63
 788:	f8 94       	cli
 78a:	de bf       	out	0x3e, r29	; 62
 78c:	0f be       	out	0x3f, r0	; 63
 78e:	cd bf       	out	0x3d, r28	; 61
			
			init_millis(16000000UL); //frequency the atmega328p is running at
 790:	60 e0       	ldi	r22, 0x00	; 0
 792:	74 e2       	ldi	r23, 0x24	; 36
 794:	84 ef       	ldi	r24, 0xF4	; 244
 796:	90 e0       	ldi	r25, 0x00	; 0
 798:	af dd       	rcall	.-1186   	; 0x2f8 <_Z11init_millism>
			UART_Init0();
 79a:	e7 dc       	rcall	.-1586   	; 0x16a <_Z10UART_Init0v>
			UART_Init1();       ///for esp baudrate is selected 115200
 79c:	68 dd       	rcall	.-1328   	; 0x26e <_Z10UART_Init1v>
			printString0("******************ESP8266 AT Commands firmware: Webserver (using embedded C)*****************");
 79e:	8a ef       	ldi	r24, 0xFA	; 250
 7a0:	96 e0       	ldi	r25, 0x06	; 6
 7a2:	f5 dc       	rcall	.-1558   	; 0x18e <_Z12printString0PKc>
			printString0("\n");
 7a4:	8f e7       	ldi	r24, 0x7F	; 127
 7a6:	97 e0       	ldi	r25, 0x07	; 7
 7a8:	f2 dc       	rcall	.-1564   	; 0x18e <_Z12printString0PKc>
 7aa:	78 94       	sei
			sei();
 7ac:	e1 2c       	mov	r14, r1
			int i=0;
			int c=0;
 7ae:	f1 2c       	mov	r15, r1
 7b0:	0f 2e       	mov	r0, r31
	
	
send_command("AT+CIFSR\r\n");
RFR_UART1(1000);

 memset(staip, '\0',sizeof(staip));
 7b2:	f4 e1       	ldi	r31, 0x14	; 20
 7b4:	7f 2e       	mov	r7, r31
 7b6:	f0 2d       	mov	r31, r0
 7b8:	8e 01       	movw	r16, r28
 7ba:	0f 5f       	subi	r16, 0xFF	; 255
 7bc:	1f 4f       	sbci	r17, 0xFF	; 255
 7be:	6e 01       	movw	r12, r28
 memset(stamac, '\0',sizeof(stamac));
 7c0:	25 e1       	ldi	r18, 0x15	; 21
 7c2:	c2 0e       	add	r12, r18
 7c4:	d1 1c       	adc	r13, r1
 7c6:	1e 14       	cp	r1, r14
			char staip[20],stamac[20];
			while(1)
			{
			
				
				if(c<1)
 7c8:	1f 04       	cpc	r1, r15
 7ca:	0c f4       	brge	.+2      	; 0x7ce <main+0x52>
	//printString0(p);
	return (p);
}
void send_command(const char * command)
{
	printString1(command);
 7cc:	5c c0       	rjmp	.+184    	; 0x886 <main+0x10a>
 7ce:	8a ec       	ldi	r24, 0xCA	; 202
{
	//Configure as Station
	send_command("AT+CWMODE=1\r\n");
	getstring_UART1();
 7d0:	96 e0       	ldi	r25, 0x06	; 6
 7d2:	5f dd       	rcall	.-1346   	; 0x292 <_Z12printString1PKc>
 7d4:	3e de       	rcall	.-900    	; 0x452 <_Z15getstring_UART1v>
 7d6:	88 ed       	ldi	r24, 0xD8	; 216

	//Start Multiple connection
	send_command("AT+CIPMUX=1\r\n");
	getstring_UART1();
 7d8:	96 e0       	ldi	r25, 0x06	; 6
 7da:	5b dd       	rcall	.-1354   	; 0x292 <_Z12printString1PKc>
 7dc:	3a de       	rcall	.-908    	; 0x452 <_Z15getstring_UART1v>
 7de:	86 ee       	ldi	r24, 0xE6	; 230
	
	send_command("AT+CIPSERVER=1,80\r\n");
    RFR_UART1(1000);	
 7e0:	96 e0       	ldi	r25, 0x06	; 6
 7e2:	57 dd       	rcall	.-1362   	; 0x292 <_Z12printString1PKc>
 7e4:	88 ee       	ldi	r24, 0xE8	; 232
	printString0(RX_DATA_UART1);
 7e6:	93 e0       	ldi	r25, 0x03	; 3
 7e8:	6f de       	rcall	.-802    	; 0x4c8 <_Z9RFR_UART1j>
 7ea:	8e e9       	ldi	r24, 0x9E	; 158
 7ec:	9c e0       	ldi	r25, 0x0C	; 12
 7ee:	cf dc       	rcall	.-1634   	; 0x18e <_Z12printString0PKc>
 7f0:	82 ed       	ldi	r24, 0xD2	; 210
	
		send_command("AT+CWJAP?\r\n");
		getstring_UART1();
 7f2:	92 e0       	ldi	r25, 0x02	; 2
 7f4:	4e dd       	rcall	.-1380   	; 0x292 <_Z12printString1PKc>
 7f6:	2d de       	rcall	.-934    	; 0x452 <_Z15getstring_UART1v>
 7f8:	88 e5       	ldi	r24, 0x58	; 88
 7fa:	97 e0       	ldi	r25, 0x07	; 7
 7fc:	4a dd       	rcall	.-1388   	; 0x292 <_Z12printString1PKc>


		//Connect To wifi
	send_command("AT+CWJAP=\"JioFiber 2.4ghz\",\"Mansi5481\"\r\n");
	RFR_UART1(16000);
 7fe:	80 e8       	ldi	r24, 0x80	; 128
 800:	9e e3       	ldi	r25, 0x3E	; 62
 802:	62 de       	rcall	.-828    	; 0x4c8 <_Z9RFR_UART1j>
 804:	81 e0       	ldi	r24, 0x01	; 1
 806:	94 e0       	ldi	r25, 0x04	; 4
 808:	44 dd       	rcall	.-1400   	; 0x292 <_Z12printString1PKc>
 80a:	88 ee       	ldi	r24, 0xE8	; 232
 80c:	93 e0       	ldi	r25, 0x03	; 3
	
	
send_command("AT+CIFSR\r\n");
RFR_UART1(1000);
 80e:	5c de       	rcall	.-840    	; 0x4c8 <_Z9RFR_UART1j>
 810:	f8 01       	movw	r30, r16
 812:	27 2d       	mov	r18, r7

 memset(staip, '\0',sizeof(staip));
 814:	11 92       	st	Z+, r1
 816:	2a 95       	dec	r18
 818:	e9 f7       	brne	.-6      	; 0x814 <main+0x98>
 81a:	f6 01       	movw	r30, r12
 memset(stamac, '\0',sizeof(stamac));
 81c:	27 2d       	mov	r18, r7
 81e:	11 92       	st	Z+, r1
 820:	2a 95       	dec	r18
 822:	e9 f7       	brne	.-6      	; 0x81e <main+0xa2>
 
 char * p = strstr(RX_DATA_UART1,"+CIFSR:STAIP");
 824:	6c e1       	ldi	r22, 0x1C	; 28
 826:	74 e0       	ldi	r23, 0x04	; 4
 828:	8e e9       	ldi	r24, 0x9E	; 158
 82a:	9c e0       	ldi	r25, 0x0C	; 12
 p += strlen("+CWJAP:STAIP")+2;
 82c:	93 d0       	rcall	.+294    	; 0x954 <strstr>
 char * q=strchr(p,'"');
 82e:	0e 96       	adiw	r24, 0x0e	; 14
 830:	5c 01       	movw	r10, r24
 832:	62 e2       	ldi	r22, 0x22	; 34
 834:	70 e0       	ldi	r23, 0x00	; 0
 strncpy(staip,p,q-p);
 836:	74 d0       	rcall	.+232    	; 0x920 <strchr>
 838:	ac 01       	movw	r20, r24
 83a:	4a 19       	sub	r20, r10
 83c:	5b 09       	sbc	r21, r11
 83e:	b5 01       	movw	r22, r10
 printString0("IP address of Station is :");
 840:	c8 01       	movw	r24, r16
 842:	79 d0       	rcall	.+242    	; 0x936 <strncpy>
 844:	89 e2       	ldi	r24, 0x29	; 41
 846:	94 e0       	ldi	r25, 0x04	; 4
 printString0(staip);
 848:	a2 dc       	rcall	.-1724   	; 0x18e <_Z12printString0PKc>
 84a:	c8 01       	movw	r24, r16

printString0("\n");
 84c:	a0 dc       	rcall	.-1728   	; 0x18e <_Z12printString0PKc>
 84e:	8f e7       	ldi	r24, 0x7F	; 127
printString0(p);
 850:	97 e0       	ldi	r25, 0x07	; 7
 852:	9d dc       	rcall	.-1734   	; 0x18e <_Z12printString0PKc>
char * r = strstr(RX_DATA_UART1,"+CIFSR:STAMAC");
 854:	c5 01       	movw	r24, r10
 856:	9b dc       	rcall	.-1738   	; 0x18e <_Z12printString0PKc>
 858:	64 e4       	ldi	r22, 0x44	; 68
 85a:	74 e0       	ldi	r23, 0x04	; 4
 85c:	8e e9       	ldi	r24, 0x9E	; 158
r += strlen("+CIFSR:STAMAC")+2;
 85e:	9c e0       	ldi	r25, 0x0C	; 12
char * s =strchr(r,'"');
 860:	79 d0       	rcall	.+242    	; 0x954 <strstr>
 862:	0f 96       	adiw	r24, 0x0f	; 15
 864:	5c 01       	movw	r10, r24
strncpy(stamac,r,s-r);
 866:	62 e2       	ldi	r22, 0x22	; 34
 868:	70 e0       	ldi	r23, 0x00	; 0
 86a:	5a d0       	rcall	.+180    	; 0x920 <strchr>
 86c:	ac 01       	movw	r20, r24
 86e:	4a 19       	sub	r20, r10
 870:	5b 09       	sbc	r21, r11
 872:	b5 01       	movw	r22, r10
 874:	c6 01       	movw	r24, r12
 876:	5f d0       	rcall	.+190    	; 0x936 <strncpy>
 878:	81 e8       	ldi	r24, 0x81	; 129
//printString0("\n Mac address of Station is :");
//printString0(stamac);

send_command("AT+CIPSTO?\r\n");
getstring_UART1();
 87a:	97 e0       	ldi	r25, 0x07	; 7
 87c:	0a dd       	rcall	.-1516   	; 0x292 <_Z12printString1PKc>


c++;
 87e:	e9 dd       	rcall	.-1070   	; 0x452 <_Z15getstring_UART1v>
 880:	8f ef       	ldi	r24, 0xFF	; 255
 882:	e8 1a       	sub	r14, r24
}


uint32_t g=0;
g = getstring_ESP8266FORSERVER(staip);
 884:	f8 0a       	sbc	r15, r24
 886:	c8 01       	movw	r24, r16
 888:	ab de       	rcall	.-682    	; 0x5e0 <_Z26getstring_ESP8266FORSERVERPc>
 88a:	4b 01       	movw	r8, r22
 88c:	5c 01       	movw	r10, r24
printString0("\n");
 88e:	8f e7       	ldi	r24, 0x7F	; 127
 890:	97 e0       	ldi	r25, 0x07	; 7
 892:	7d dc       	rcall	.-1798   	; 0x18e <_Z12printString0PKc>
 894:	c5 01       	movw	r24, r10
decimel0(g);
 896:	b4 01       	movw	r22, r8
 898:	89 dc       	rcall	.-1774   	; 0x1ac <_Z8decimel0m>
 89a:	8f e7       	ldi	r24, 0x7F	; 127
 89c:	97 e0       	ldi	r25, 0x07	; 7
printString0("\n");
 89e:	77 dc       	rcall	.-1810   	; 0x18e <_Z12printString0PKc>
 8a0:	14 df       	rcall	.-472    	; 0x6ca <_Z33esp8266_serverdatatoclientcipsendv>
 8a2:	9f ef       	ldi	r25, 0xFF	; 255
 8a4:	e3 ed       	ldi	r30, 0xD3	; 211
	//if(g==1)
	{
		esp8266_serverdatatoclientcipsend();
 8a6:	f0 e3       	ldi	r31, 0x30	; 48
 8a8:	91 50       	subi	r25, 0x01	; 1
	#else
		//round up by default
		__ticks_dc = (uint32_t)(ceil(fabs(__tmp)));
	#endif

	__builtin_avr_delay_cycles(__ticks_dc);
 8aa:	e0 40       	sbci	r30, 0x00	; 0
 8ac:	f0 40       	sbci	r31, 0x00	; 0
 8ae:	e1 f7       	brne	.-8      	; 0x8a8 <main+0x12c>
 8b0:	00 c0       	rjmp	.+0      	; 0x8b2 <main+0x136>
 8b2:	00 00       	nop
 8b4:	52 df       	rcall	.-348    	; 0x75a <_Z19esp8266_webpagedatav>
 8b6:	2f ef       	ldi	r18, 0xFF	; 255
 8b8:	83 ed       	ldi	r24, 0xD3	; 211
 8ba:	90 e3       	ldi	r25, 0x30	; 48
		_delay_ms(1000);
	esp8266_webpagedata();
 8bc:	21 50       	subi	r18, 0x01	; 1
 8be:	80 40       	sbci	r24, 0x00	; 0
 8c0:	90 40       	sbci	r25, 0x00	; 0
 8c2:	e1 f7       	brne	.-8      	; 0x8bc <main+0x140>
 8c4:	00 c0       	rjmp	.+0      	; 0x8c6 <main+0x14a>
 8c6:	00 00       	nop
 8c8:	ef ef       	ldi	r30, 0xFF	; 255
 8ca:	f3 e2       	ldi	r31, 0x23	; 35
 8cc:	24 ef       	ldi	r18, 0xF4	; 244
 8ce:	e1 50       	subi	r30, 0x01	; 1
 8d0:	f0 40       	sbci	r31, 0x00	; 0
 8d2:	20 40       	sbci	r18, 0x00	; 0
 8d4:	e1 f7       	brne	.-8      	; 0x8ce <main+0x152>
 8d6:	00 c0       	rjmp	.+0      	; 0x8d8 <main+0x15c>
 8d8:	00 00       	nop
 8da:	75 cf       	rjmp	.-278    	; 0x7c6 <main+0x4a>

000008dc <__udivmodsi4>:
 8dc:	a1 e2       	ldi	r26, 0x21	; 33
 8de:	1a 2e       	mov	r1, r26
 8e0:	aa 1b       	sub	r26, r26
 8e2:	bb 1b       	sub	r27, r27
 8e4:	fd 01       	movw	r30, r26
 8e6:	0d c0       	rjmp	.+26     	; 0x902 <__udivmodsi4_ep>

000008e8 <__udivmodsi4_loop>:
 8e8:	aa 1f       	adc	r26, r26
 8ea:	bb 1f       	adc	r27, r27
 8ec:	ee 1f       	adc	r30, r30
 8ee:	ff 1f       	adc	r31, r31
 8f0:	a2 17       	cp	r26, r18
 8f2:	b3 07       	cpc	r27, r19
 8f4:	e4 07       	cpc	r30, r20
 8f6:	f5 07       	cpc	r31, r21
 8f8:	20 f0       	brcs	.+8      	; 0x902 <__udivmodsi4_ep>
 8fa:	a2 1b       	sub	r26, r18
 8fc:	b3 0b       	sbc	r27, r19
 8fe:	e4 0b       	sbc	r30, r20
 900:	f5 0b       	sbc	r31, r21

00000902 <__udivmodsi4_ep>:
 902:	66 1f       	adc	r22, r22
 904:	77 1f       	adc	r23, r23
 906:	88 1f       	adc	r24, r24
 908:	99 1f       	adc	r25, r25
 90a:	1a 94       	dec	r1
 90c:	69 f7       	brne	.-38     	; 0x8e8 <__udivmodsi4_loop>
 90e:	60 95       	com	r22
 910:	70 95       	com	r23
 912:	80 95       	com	r24
 914:	90 95       	com	r25
 916:	9b 01       	movw	r18, r22
 918:	ac 01       	movw	r20, r24
 91a:	bd 01       	movw	r22, r26
 91c:	cf 01       	movw	r24, r30
 91e:	08 95       	ret

00000920 <strchr>:
 920:	fc 01       	movw	r30, r24
 922:	81 91       	ld	r24, Z+
 924:	86 17       	cp	r24, r22
 926:	21 f0       	breq	.+8      	; 0x930 <strchr+0x10>
 928:	88 23       	and	r24, r24
 92a:	d9 f7       	brne	.-10     	; 0x922 <strchr+0x2>
 92c:	99 27       	eor	r25, r25
 92e:	08 95       	ret
 930:	31 97       	sbiw	r30, 0x01	; 1
 932:	cf 01       	movw	r24, r30
 934:	08 95       	ret

00000936 <strncpy>:
 936:	fb 01       	movw	r30, r22
 938:	dc 01       	movw	r26, r24
 93a:	41 50       	subi	r20, 0x01	; 1
 93c:	50 40       	sbci	r21, 0x00	; 0
 93e:	48 f0       	brcs	.+18     	; 0x952 <strncpy+0x1c>
 940:	01 90       	ld	r0, Z+
 942:	0d 92       	st	X+, r0
 944:	00 20       	and	r0, r0
 946:	c9 f7       	brne	.-14     	; 0x93a <strncpy+0x4>
 948:	01 c0       	rjmp	.+2      	; 0x94c <strncpy+0x16>
 94a:	1d 92       	st	X+, r1
 94c:	41 50       	subi	r20, 0x01	; 1
 94e:	50 40       	sbci	r21, 0x00	; 0
 950:	e0 f7       	brcc	.-8      	; 0x94a <strncpy+0x14>
 952:	08 95       	ret

00000954 <strstr>:
 954:	fb 01       	movw	r30, r22
 956:	51 91       	ld	r21, Z+
 958:	55 23       	and	r21, r21
 95a:	a9 f0       	breq	.+42     	; 0x986 <strstr+0x32>
 95c:	bf 01       	movw	r22, r30
 95e:	dc 01       	movw	r26, r24
 960:	4d 91       	ld	r20, X+
 962:	45 17       	cp	r20, r21
 964:	41 11       	cpse	r20, r1
 966:	e1 f7       	brne	.-8      	; 0x960 <strstr+0xc>
 968:	59 f4       	brne	.+22     	; 0x980 <strstr+0x2c>
 96a:	cd 01       	movw	r24, r26
 96c:	01 90       	ld	r0, Z+
 96e:	00 20       	and	r0, r0
 970:	49 f0       	breq	.+18     	; 0x984 <strstr+0x30>
 972:	4d 91       	ld	r20, X+
 974:	40 15       	cp	r20, r0
 976:	41 11       	cpse	r20, r1
 978:	c9 f3       	breq	.-14     	; 0x96c <strstr+0x18>
 97a:	fb 01       	movw	r30, r22
 97c:	41 11       	cpse	r20, r1
 97e:	ef cf       	rjmp	.-34     	; 0x95e <strstr+0xa>
 980:	81 e0       	ldi	r24, 0x01	; 1
 982:	90 e0       	ldi	r25, 0x00	; 0
 984:	01 97       	sbiw	r24, 0x01	; 1
 986:	08 95       	ret

00000988 <sprintf>:
 988:	0f 93       	push	r16
 98a:	1f 93       	push	r17
 98c:	cf 93       	push	r28
 98e:	df 93       	push	r29
 990:	cd b7       	in	r28, 0x3d	; 61
 992:	de b7       	in	r29, 0x3e	; 62
 994:	2e 97       	sbiw	r28, 0x0e	; 14
 996:	0f b6       	in	r0, 0x3f	; 63
 998:	f8 94       	cli
 99a:	de bf       	out	0x3e, r29	; 62
 99c:	0f be       	out	0x3f, r0	; 63
 99e:	cd bf       	out	0x3d, r28	; 61
 9a0:	0e 89       	ldd	r16, Y+22	; 0x16
 9a2:	1f 89       	ldd	r17, Y+23	; 0x17
 9a4:	86 e0       	ldi	r24, 0x06	; 6
 9a6:	8c 83       	std	Y+4, r24	; 0x04
 9a8:	1a 83       	std	Y+2, r17	; 0x02
 9aa:	09 83       	std	Y+1, r16	; 0x01
 9ac:	8f ef       	ldi	r24, 0xFF	; 255
 9ae:	9f e7       	ldi	r25, 0x7F	; 127
 9b0:	9e 83       	std	Y+6, r25	; 0x06
 9b2:	8d 83       	std	Y+5, r24	; 0x05
 9b4:	ae 01       	movw	r20, r28
 9b6:	46 5e       	subi	r20, 0xE6	; 230
 9b8:	5f 4f       	sbci	r21, 0xFF	; 255
 9ba:	68 8d       	ldd	r22, Y+24	; 0x18
 9bc:	79 8d       	ldd	r23, Y+25	; 0x19
 9be:	ce 01       	movw	r24, r28
 9c0:	01 96       	adiw	r24, 0x01	; 1
 9c2:	10 d0       	rcall	.+32     	; 0x9e4 <vfprintf>
 9c4:	ef 81       	ldd	r30, Y+7	; 0x07
 9c6:	f8 85       	ldd	r31, Y+8	; 0x08
 9c8:	e0 0f       	add	r30, r16
 9ca:	f1 1f       	adc	r31, r17
 9cc:	10 82       	st	Z, r1
 9ce:	2e 96       	adiw	r28, 0x0e	; 14
 9d0:	0f b6       	in	r0, 0x3f	; 63
 9d2:	f8 94       	cli
 9d4:	de bf       	out	0x3e, r29	; 62
 9d6:	0f be       	out	0x3f, r0	; 63
 9d8:	cd bf       	out	0x3d, r28	; 61
 9da:	df 91       	pop	r29
 9dc:	cf 91       	pop	r28
 9de:	1f 91       	pop	r17
 9e0:	0f 91       	pop	r16
 9e2:	08 95       	ret

000009e4 <vfprintf>:
 9e4:	2f 92       	push	r2
 9e6:	3f 92       	push	r3
 9e8:	4f 92       	push	r4
 9ea:	5f 92       	push	r5
 9ec:	6f 92       	push	r6
 9ee:	7f 92       	push	r7
 9f0:	8f 92       	push	r8
 9f2:	9f 92       	push	r9
 9f4:	af 92       	push	r10
 9f6:	bf 92       	push	r11
 9f8:	cf 92       	push	r12
 9fa:	df 92       	push	r13
 9fc:	ef 92       	push	r14
 9fe:	ff 92       	push	r15
 a00:	0f 93       	push	r16
 a02:	1f 93       	push	r17
 a04:	cf 93       	push	r28
 a06:	df 93       	push	r29
 a08:	cd b7       	in	r28, 0x3d	; 61
 a0a:	de b7       	in	r29, 0x3e	; 62
 a0c:	2b 97       	sbiw	r28, 0x0b	; 11
 a0e:	0f b6       	in	r0, 0x3f	; 63
 a10:	f8 94       	cli
 a12:	de bf       	out	0x3e, r29	; 62
 a14:	0f be       	out	0x3f, r0	; 63
 a16:	cd bf       	out	0x3d, r28	; 61
 a18:	6c 01       	movw	r12, r24
 a1a:	7b 01       	movw	r14, r22
 a1c:	8a 01       	movw	r16, r20
 a1e:	fc 01       	movw	r30, r24
 a20:	17 82       	std	Z+7, r1	; 0x07
 a22:	16 82       	std	Z+6, r1	; 0x06
 a24:	83 81       	ldd	r24, Z+3	; 0x03
 a26:	81 ff       	sbrs	r24, 1
 a28:	bf c1       	rjmp	.+894    	; 0xda8 <vfprintf+0x3c4>
 a2a:	ce 01       	movw	r24, r28
 a2c:	01 96       	adiw	r24, 0x01	; 1
 a2e:	3c 01       	movw	r6, r24
 a30:	f6 01       	movw	r30, r12
 a32:	93 81       	ldd	r25, Z+3	; 0x03
 a34:	f7 01       	movw	r30, r14
 a36:	93 fd       	sbrc	r25, 3
 a38:	85 91       	lpm	r24, Z+
 a3a:	93 ff       	sbrs	r25, 3
 a3c:	81 91       	ld	r24, Z+
 a3e:	7f 01       	movw	r14, r30
 a40:	88 23       	and	r24, r24
 a42:	09 f4       	brne	.+2      	; 0xa46 <vfprintf+0x62>
 a44:	ad c1       	rjmp	.+858    	; 0xda0 <vfprintf+0x3bc>
 a46:	85 32       	cpi	r24, 0x25	; 37
 a48:	39 f4       	brne	.+14     	; 0xa58 <vfprintf+0x74>
 a4a:	93 fd       	sbrc	r25, 3
 a4c:	85 91       	lpm	r24, Z+
 a4e:	93 ff       	sbrs	r25, 3
 a50:	81 91       	ld	r24, Z+
 a52:	7f 01       	movw	r14, r30
 a54:	85 32       	cpi	r24, 0x25	; 37
 a56:	21 f4       	brne	.+8      	; 0xa60 <vfprintf+0x7c>
 a58:	b6 01       	movw	r22, r12
 a5a:	90 e0       	ldi	r25, 0x00	; 0
 a5c:	d6 d1       	rcall	.+940    	; 0xe0a <fputc>
 a5e:	e8 cf       	rjmp	.-48     	; 0xa30 <vfprintf+0x4c>
 a60:	91 2c       	mov	r9, r1
 a62:	21 2c       	mov	r2, r1
 a64:	31 2c       	mov	r3, r1
 a66:	ff e1       	ldi	r31, 0x1F	; 31
 a68:	f3 15       	cp	r31, r3
 a6a:	d8 f0       	brcs	.+54     	; 0xaa2 <vfprintf+0xbe>
 a6c:	8b 32       	cpi	r24, 0x2B	; 43
 a6e:	79 f0       	breq	.+30     	; 0xa8e <vfprintf+0xaa>
 a70:	38 f4       	brcc	.+14     	; 0xa80 <vfprintf+0x9c>
 a72:	80 32       	cpi	r24, 0x20	; 32
 a74:	79 f0       	breq	.+30     	; 0xa94 <vfprintf+0xb0>
 a76:	83 32       	cpi	r24, 0x23	; 35
 a78:	a1 f4       	brne	.+40     	; 0xaa2 <vfprintf+0xbe>
 a7a:	23 2d       	mov	r18, r3
 a7c:	20 61       	ori	r18, 0x10	; 16
 a7e:	1d c0       	rjmp	.+58     	; 0xaba <vfprintf+0xd6>
 a80:	8d 32       	cpi	r24, 0x2D	; 45
 a82:	61 f0       	breq	.+24     	; 0xa9c <vfprintf+0xb8>
 a84:	80 33       	cpi	r24, 0x30	; 48
 a86:	69 f4       	brne	.+26     	; 0xaa2 <vfprintf+0xbe>
 a88:	23 2d       	mov	r18, r3
 a8a:	21 60       	ori	r18, 0x01	; 1
 a8c:	16 c0       	rjmp	.+44     	; 0xaba <vfprintf+0xd6>
 a8e:	83 2d       	mov	r24, r3
 a90:	82 60       	ori	r24, 0x02	; 2
 a92:	38 2e       	mov	r3, r24
 a94:	e3 2d       	mov	r30, r3
 a96:	e4 60       	ori	r30, 0x04	; 4
 a98:	3e 2e       	mov	r3, r30
 a9a:	2a c0       	rjmp	.+84     	; 0xaf0 <vfprintf+0x10c>
 a9c:	f3 2d       	mov	r31, r3
 a9e:	f8 60       	ori	r31, 0x08	; 8
 aa0:	1d c0       	rjmp	.+58     	; 0xadc <vfprintf+0xf8>
 aa2:	37 fc       	sbrc	r3, 7
 aa4:	2d c0       	rjmp	.+90     	; 0xb00 <vfprintf+0x11c>
 aa6:	20 ed       	ldi	r18, 0xD0	; 208
 aa8:	28 0f       	add	r18, r24
 aaa:	2a 30       	cpi	r18, 0x0A	; 10
 aac:	40 f0       	brcs	.+16     	; 0xabe <vfprintf+0xda>
 aae:	8e 32       	cpi	r24, 0x2E	; 46
 ab0:	b9 f4       	brne	.+46     	; 0xae0 <vfprintf+0xfc>
 ab2:	36 fc       	sbrc	r3, 6
 ab4:	75 c1       	rjmp	.+746    	; 0xda0 <vfprintf+0x3bc>
 ab6:	23 2d       	mov	r18, r3
 ab8:	20 64       	ori	r18, 0x40	; 64
 aba:	32 2e       	mov	r3, r18
 abc:	19 c0       	rjmp	.+50     	; 0xaf0 <vfprintf+0x10c>
 abe:	36 fe       	sbrs	r3, 6
 ac0:	06 c0       	rjmp	.+12     	; 0xace <vfprintf+0xea>
 ac2:	8a e0       	ldi	r24, 0x0A	; 10
 ac4:	98 9e       	mul	r9, r24
 ac6:	20 0d       	add	r18, r0
 ac8:	11 24       	eor	r1, r1
 aca:	92 2e       	mov	r9, r18
 acc:	11 c0       	rjmp	.+34     	; 0xaf0 <vfprintf+0x10c>
 ace:	ea e0       	ldi	r30, 0x0A	; 10
 ad0:	2e 9e       	mul	r2, r30
 ad2:	20 0d       	add	r18, r0
 ad4:	11 24       	eor	r1, r1
 ad6:	22 2e       	mov	r2, r18
 ad8:	f3 2d       	mov	r31, r3
 ada:	f0 62       	ori	r31, 0x20	; 32
 adc:	3f 2e       	mov	r3, r31
 ade:	08 c0       	rjmp	.+16     	; 0xaf0 <vfprintf+0x10c>
 ae0:	8c 36       	cpi	r24, 0x6C	; 108
 ae2:	21 f4       	brne	.+8      	; 0xaec <vfprintf+0x108>
 ae4:	83 2d       	mov	r24, r3
 ae6:	80 68       	ori	r24, 0x80	; 128
 ae8:	38 2e       	mov	r3, r24
 aea:	02 c0       	rjmp	.+4      	; 0xaf0 <vfprintf+0x10c>
 aec:	88 36       	cpi	r24, 0x68	; 104
 aee:	41 f4       	brne	.+16     	; 0xb00 <vfprintf+0x11c>
 af0:	f7 01       	movw	r30, r14
 af2:	93 fd       	sbrc	r25, 3
 af4:	85 91       	lpm	r24, Z+
 af6:	93 ff       	sbrs	r25, 3
 af8:	81 91       	ld	r24, Z+
 afa:	7f 01       	movw	r14, r30
 afc:	81 11       	cpse	r24, r1
 afe:	b3 cf       	rjmp	.-154    	; 0xa66 <vfprintf+0x82>
 b00:	98 2f       	mov	r25, r24
 b02:	9f 7d       	andi	r25, 0xDF	; 223
 b04:	95 54       	subi	r25, 0x45	; 69
 b06:	93 30       	cpi	r25, 0x03	; 3
 b08:	28 f4       	brcc	.+10     	; 0xb14 <vfprintf+0x130>
 b0a:	0c 5f       	subi	r16, 0xFC	; 252
 b0c:	1f 4f       	sbci	r17, 0xFF	; 255
 b0e:	9f e3       	ldi	r25, 0x3F	; 63
 b10:	99 83       	std	Y+1, r25	; 0x01
 b12:	0d c0       	rjmp	.+26     	; 0xb2e <vfprintf+0x14a>
 b14:	83 36       	cpi	r24, 0x63	; 99
 b16:	31 f0       	breq	.+12     	; 0xb24 <vfprintf+0x140>
 b18:	83 37       	cpi	r24, 0x73	; 115
 b1a:	71 f0       	breq	.+28     	; 0xb38 <vfprintf+0x154>
 b1c:	83 35       	cpi	r24, 0x53	; 83
 b1e:	09 f0       	breq	.+2      	; 0xb22 <vfprintf+0x13e>
 b20:	55 c0       	rjmp	.+170    	; 0xbcc <vfprintf+0x1e8>
 b22:	20 c0       	rjmp	.+64     	; 0xb64 <vfprintf+0x180>
 b24:	f8 01       	movw	r30, r16
 b26:	80 81       	ld	r24, Z
 b28:	89 83       	std	Y+1, r24	; 0x01
 b2a:	0e 5f       	subi	r16, 0xFE	; 254
 b2c:	1f 4f       	sbci	r17, 0xFF	; 255
 b2e:	88 24       	eor	r8, r8
 b30:	83 94       	inc	r8
 b32:	91 2c       	mov	r9, r1
 b34:	53 01       	movw	r10, r6
 b36:	12 c0       	rjmp	.+36     	; 0xb5c <vfprintf+0x178>
 b38:	28 01       	movw	r4, r16
 b3a:	f2 e0       	ldi	r31, 0x02	; 2
 b3c:	4f 0e       	add	r4, r31
 b3e:	51 1c       	adc	r5, r1
 b40:	f8 01       	movw	r30, r16
 b42:	a0 80       	ld	r10, Z
 b44:	b1 80       	ldd	r11, Z+1	; 0x01
 b46:	36 fe       	sbrs	r3, 6
 b48:	03 c0       	rjmp	.+6      	; 0xb50 <vfprintf+0x16c>
 b4a:	69 2d       	mov	r22, r9
 b4c:	70 e0       	ldi	r23, 0x00	; 0
 b4e:	02 c0       	rjmp	.+4      	; 0xb54 <vfprintf+0x170>
 b50:	6f ef       	ldi	r22, 0xFF	; 255
 b52:	7f ef       	ldi	r23, 0xFF	; 255
 b54:	c5 01       	movw	r24, r10
 b56:	4e d1       	rcall	.+668    	; 0xdf4 <strnlen>
 b58:	4c 01       	movw	r8, r24
 b5a:	82 01       	movw	r16, r4
 b5c:	f3 2d       	mov	r31, r3
 b5e:	ff 77       	andi	r31, 0x7F	; 127
 b60:	3f 2e       	mov	r3, r31
 b62:	15 c0       	rjmp	.+42     	; 0xb8e <vfprintf+0x1aa>
 b64:	28 01       	movw	r4, r16
 b66:	22 e0       	ldi	r18, 0x02	; 2
 b68:	42 0e       	add	r4, r18
 b6a:	51 1c       	adc	r5, r1
 b6c:	f8 01       	movw	r30, r16
 b6e:	a0 80       	ld	r10, Z
 b70:	b1 80       	ldd	r11, Z+1	; 0x01
 b72:	36 fe       	sbrs	r3, 6
 b74:	03 c0       	rjmp	.+6      	; 0xb7c <vfprintf+0x198>
 b76:	69 2d       	mov	r22, r9
 b78:	70 e0       	ldi	r23, 0x00	; 0
 b7a:	02 c0       	rjmp	.+4      	; 0xb80 <vfprintf+0x19c>
 b7c:	6f ef       	ldi	r22, 0xFF	; 255
 b7e:	7f ef       	ldi	r23, 0xFF	; 255
 b80:	c5 01       	movw	r24, r10
 b82:	2d d1       	rcall	.+602    	; 0xdde <strnlen_P>
 b84:	4c 01       	movw	r8, r24
 b86:	f3 2d       	mov	r31, r3
 b88:	f0 68       	ori	r31, 0x80	; 128
 b8a:	3f 2e       	mov	r3, r31
 b8c:	82 01       	movw	r16, r4
 b8e:	33 fc       	sbrc	r3, 3
 b90:	19 c0       	rjmp	.+50     	; 0xbc4 <vfprintf+0x1e0>
 b92:	82 2d       	mov	r24, r2
 b94:	90 e0       	ldi	r25, 0x00	; 0
 b96:	88 16       	cp	r8, r24
 b98:	99 06       	cpc	r9, r25
 b9a:	a0 f4       	brcc	.+40     	; 0xbc4 <vfprintf+0x1e0>
 b9c:	b6 01       	movw	r22, r12
 b9e:	80 e2       	ldi	r24, 0x20	; 32
 ba0:	90 e0       	ldi	r25, 0x00	; 0
 ba2:	33 d1       	rcall	.+614    	; 0xe0a <fputc>
 ba4:	2a 94       	dec	r2
 ba6:	f5 cf       	rjmp	.-22     	; 0xb92 <vfprintf+0x1ae>
 ba8:	f5 01       	movw	r30, r10
 baa:	37 fc       	sbrc	r3, 7
 bac:	85 91       	lpm	r24, Z+
 bae:	37 fe       	sbrs	r3, 7
 bb0:	81 91       	ld	r24, Z+
 bb2:	5f 01       	movw	r10, r30
 bb4:	b6 01       	movw	r22, r12
 bb6:	90 e0       	ldi	r25, 0x00	; 0
 bb8:	28 d1       	rcall	.+592    	; 0xe0a <fputc>
 bba:	21 10       	cpse	r2, r1
 bbc:	2a 94       	dec	r2
 bbe:	21 e0       	ldi	r18, 0x01	; 1
 bc0:	82 1a       	sub	r8, r18
 bc2:	91 08       	sbc	r9, r1
 bc4:	81 14       	cp	r8, r1
 bc6:	91 04       	cpc	r9, r1
 bc8:	79 f7       	brne	.-34     	; 0xba8 <vfprintf+0x1c4>
 bca:	e1 c0       	rjmp	.+450    	; 0xd8e <vfprintf+0x3aa>
 bcc:	84 36       	cpi	r24, 0x64	; 100
 bce:	11 f0       	breq	.+4      	; 0xbd4 <vfprintf+0x1f0>
 bd0:	89 36       	cpi	r24, 0x69	; 105
 bd2:	39 f5       	brne	.+78     	; 0xc22 <vfprintf+0x23e>
 bd4:	f8 01       	movw	r30, r16
 bd6:	37 fe       	sbrs	r3, 7
 bd8:	07 c0       	rjmp	.+14     	; 0xbe8 <vfprintf+0x204>
 bda:	60 81       	ld	r22, Z
 bdc:	71 81       	ldd	r23, Z+1	; 0x01
 bde:	82 81       	ldd	r24, Z+2	; 0x02
 be0:	93 81       	ldd	r25, Z+3	; 0x03
 be2:	0c 5f       	subi	r16, 0xFC	; 252
 be4:	1f 4f       	sbci	r17, 0xFF	; 255
 be6:	08 c0       	rjmp	.+16     	; 0xbf8 <vfprintf+0x214>
 be8:	60 81       	ld	r22, Z
 bea:	71 81       	ldd	r23, Z+1	; 0x01
 bec:	07 2e       	mov	r0, r23
 bee:	00 0c       	add	r0, r0
 bf0:	88 0b       	sbc	r24, r24
 bf2:	99 0b       	sbc	r25, r25
 bf4:	0e 5f       	subi	r16, 0xFE	; 254
 bf6:	1f 4f       	sbci	r17, 0xFF	; 255
 bf8:	f3 2d       	mov	r31, r3
 bfa:	ff 76       	andi	r31, 0x6F	; 111
 bfc:	3f 2e       	mov	r3, r31
 bfe:	97 ff       	sbrs	r25, 7
 c00:	09 c0       	rjmp	.+18     	; 0xc14 <vfprintf+0x230>
 c02:	90 95       	com	r25
 c04:	80 95       	com	r24
 c06:	70 95       	com	r23
 c08:	61 95       	neg	r22
 c0a:	7f 4f       	sbci	r23, 0xFF	; 255
 c0c:	8f 4f       	sbci	r24, 0xFF	; 255
 c0e:	9f 4f       	sbci	r25, 0xFF	; 255
 c10:	f0 68       	ori	r31, 0x80	; 128
 c12:	3f 2e       	mov	r3, r31
 c14:	2a e0       	ldi	r18, 0x0A	; 10
 c16:	30 e0       	ldi	r19, 0x00	; 0
 c18:	a3 01       	movw	r20, r6
 c1a:	33 d1       	rcall	.+614    	; 0xe82 <__ultoa_invert>
 c1c:	88 2e       	mov	r8, r24
 c1e:	86 18       	sub	r8, r6
 c20:	44 c0       	rjmp	.+136    	; 0xcaa <vfprintf+0x2c6>
 c22:	85 37       	cpi	r24, 0x75	; 117
 c24:	31 f4       	brne	.+12     	; 0xc32 <vfprintf+0x24e>
 c26:	23 2d       	mov	r18, r3
 c28:	2f 7e       	andi	r18, 0xEF	; 239
 c2a:	b2 2e       	mov	r11, r18
 c2c:	2a e0       	ldi	r18, 0x0A	; 10
 c2e:	30 e0       	ldi	r19, 0x00	; 0
 c30:	25 c0       	rjmp	.+74     	; 0xc7c <vfprintf+0x298>
 c32:	93 2d       	mov	r25, r3
 c34:	99 7f       	andi	r25, 0xF9	; 249
 c36:	b9 2e       	mov	r11, r25
 c38:	8f 36       	cpi	r24, 0x6F	; 111
 c3a:	c1 f0       	breq	.+48     	; 0xc6c <vfprintf+0x288>
 c3c:	18 f4       	brcc	.+6      	; 0xc44 <vfprintf+0x260>
 c3e:	88 35       	cpi	r24, 0x58	; 88
 c40:	79 f0       	breq	.+30     	; 0xc60 <vfprintf+0x27c>
 c42:	ae c0       	rjmp	.+348    	; 0xda0 <vfprintf+0x3bc>
 c44:	80 37       	cpi	r24, 0x70	; 112
 c46:	19 f0       	breq	.+6      	; 0xc4e <vfprintf+0x26a>
 c48:	88 37       	cpi	r24, 0x78	; 120
 c4a:	21 f0       	breq	.+8      	; 0xc54 <vfprintf+0x270>
 c4c:	a9 c0       	rjmp	.+338    	; 0xda0 <vfprintf+0x3bc>
 c4e:	e9 2f       	mov	r30, r25
 c50:	e0 61       	ori	r30, 0x10	; 16
 c52:	be 2e       	mov	r11, r30
 c54:	b4 fe       	sbrs	r11, 4
 c56:	0d c0       	rjmp	.+26     	; 0xc72 <vfprintf+0x28e>
 c58:	fb 2d       	mov	r31, r11
 c5a:	f4 60       	ori	r31, 0x04	; 4
 c5c:	bf 2e       	mov	r11, r31
 c5e:	09 c0       	rjmp	.+18     	; 0xc72 <vfprintf+0x28e>
 c60:	34 fe       	sbrs	r3, 4
 c62:	0a c0       	rjmp	.+20     	; 0xc78 <vfprintf+0x294>
 c64:	29 2f       	mov	r18, r25
 c66:	26 60       	ori	r18, 0x06	; 6
 c68:	b2 2e       	mov	r11, r18
 c6a:	06 c0       	rjmp	.+12     	; 0xc78 <vfprintf+0x294>
 c6c:	28 e0       	ldi	r18, 0x08	; 8
 c6e:	30 e0       	ldi	r19, 0x00	; 0
 c70:	05 c0       	rjmp	.+10     	; 0xc7c <vfprintf+0x298>
 c72:	20 e1       	ldi	r18, 0x10	; 16
 c74:	30 e0       	ldi	r19, 0x00	; 0
 c76:	02 c0       	rjmp	.+4      	; 0xc7c <vfprintf+0x298>
 c78:	20 e1       	ldi	r18, 0x10	; 16
 c7a:	32 e0       	ldi	r19, 0x02	; 2
 c7c:	f8 01       	movw	r30, r16
 c7e:	b7 fe       	sbrs	r11, 7
 c80:	07 c0       	rjmp	.+14     	; 0xc90 <vfprintf+0x2ac>
 c82:	60 81       	ld	r22, Z
 c84:	71 81       	ldd	r23, Z+1	; 0x01
 c86:	82 81       	ldd	r24, Z+2	; 0x02
 c88:	93 81       	ldd	r25, Z+3	; 0x03
 c8a:	0c 5f       	subi	r16, 0xFC	; 252
 c8c:	1f 4f       	sbci	r17, 0xFF	; 255
 c8e:	06 c0       	rjmp	.+12     	; 0xc9c <vfprintf+0x2b8>
 c90:	60 81       	ld	r22, Z
 c92:	71 81       	ldd	r23, Z+1	; 0x01
 c94:	80 e0       	ldi	r24, 0x00	; 0
 c96:	90 e0       	ldi	r25, 0x00	; 0
 c98:	0e 5f       	subi	r16, 0xFE	; 254
 c9a:	1f 4f       	sbci	r17, 0xFF	; 255
 c9c:	a3 01       	movw	r20, r6
 c9e:	f1 d0       	rcall	.+482    	; 0xe82 <__ultoa_invert>
 ca0:	88 2e       	mov	r8, r24
 ca2:	86 18       	sub	r8, r6
 ca4:	fb 2d       	mov	r31, r11
 ca6:	ff 77       	andi	r31, 0x7F	; 127
 ca8:	3f 2e       	mov	r3, r31
 caa:	36 fe       	sbrs	r3, 6
 cac:	0d c0       	rjmp	.+26     	; 0xcc8 <vfprintf+0x2e4>
 cae:	23 2d       	mov	r18, r3
 cb0:	2e 7f       	andi	r18, 0xFE	; 254
 cb2:	a2 2e       	mov	r10, r18
 cb4:	89 14       	cp	r8, r9
 cb6:	58 f4       	brcc	.+22     	; 0xcce <vfprintf+0x2ea>
 cb8:	34 fe       	sbrs	r3, 4
 cba:	0b c0       	rjmp	.+22     	; 0xcd2 <vfprintf+0x2ee>
 cbc:	32 fc       	sbrc	r3, 2
 cbe:	09 c0       	rjmp	.+18     	; 0xcd2 <vfprintf+0x2ee>
 cc0:	83 2d       	mov	r24, r3
 cc2:	8e 7e       	andi	r24, 0xEE	; 238
 cc4:	a8 2e       	mov	r10, r24
 cc6:	05 c0       	rjmp	.+10     	; 0xcd2 <vfprintf+0x2ee>
 cc8:	b8 2c       	mov	r11, r8
 cca:	a3 2c       	mov	r10, r3
 ccc:	03 c0       	rjmp	.+6      	; 0xcd4 <vfprintf+0x2f0>
 cce:	b8 2c       	mov	r11, r8
 cd0:	01 c0       	rjmp	.+2      	; 0xcd4 <vfprintf+0x2f0>
 cd2:	b9 2c       	mov	r11, r9
 cd4:	a4 fe       	sbrs	r10, 4
 cd6:	0f c0       	rjmp	.+30     	; 0xcf6 <vfprintf+0x312>
 cd8:	fe 01       	movw	r30, r28
 cda:	e8 0d       	add	r30, r8
 cdc:	f1 1d       	adc	r31, r1
 cde:	80 81       	ld	r24, Z
 ce0:	80 33       	cpi	r24, 0x30	; 48
 ce2:	21 f4       	brne	.+8      	; 0xcec <vfprintf+0x308>
 ce4:	9a 2d       	mov	r25, r10
 ce6:	99 7e       	andi	r25, 0xE9	; 233
 ce8:	a9 2e       	mov	r10, r25
 cea:	09 c0       	rjmp	.+18     	; 0xcfe <vfprintf+0x31a>
 cec:	a2 fe       	sbrs	r10, 2
 cee:	06 c0       	rjmp	.+12     	; 0xcfc <vfprintf+0x318>
 cf0:	b3 94       	inc	r11
 cf2:	b3 94       	inc	r11
 cf4:	04 c0       	rjmp	.+8      	; 0xcfe <vfprintf+0x31a>
 cf6:	8a 2d       	mov	r24, r10
 cf8:	86 78       	andi	r24, 0x86	; 134
 cfa:	09 f0       	breq	.+2      	; 0xcfe <vfprintf+0x31a>
 cfc:	b3 94       	inc	r11
 cfe:	a3 fc       	sbrc	r10, 3
 d00:	10 c0       	rjmp	.+32     	; 0xd22 <vfprintf+0x33e>
 d02:	a0 fe       	sbrs	r10, 0
 d04:	06 c0       	rjmp	.+12     	; 0xd12 <vfprintf+0x32e>
 d06:	b2 14       	cp	r11, r2
 d08:	80 f4       	brcc	.+32     	; 0xd2a <vfprintf+0x346>
 d0a:	28 0c       	add	r2, r8
 d0c:	92 2c       	mov	r9, r2
 d0e:	9b 18       	sub	r9, r11
 d10:	0d c0       	rjmp	.+26     	; 0xd2c <vfprintf+0x348>
 d12:	b2 14       	cp	r11, r2
 d14:	58 f4       	brcc	.+22     	; 0xd2c <vfprintf+0x348>
 d16:	b6 01       	movw	r22, r12
 d18:	80 e2       	ldi	r24, 0x20	; 32
 d1a:	90 e0       	ldi	r25, 0x00	; 0
 d1c:	76 d0       	rcall	.+236    	; 0xe0a <fputc>
 d1e:	b3 94       	inc	r11
 d20:	f8 cf       	rjmp	.-16     	; 0xd12 <vfprintf+0x32e>
 d22:	b2 14       	cp	r11, r2
 d24:	18 f4       	brcc	.+6      	; 0xd2c <vfprintf+0x348>
 d26:	2b 18       	sub	r2, r11
 d28:	02 c0       	rjmp	.+4      	; 0xd2e <vfprintf+0x34a>
 d2a:	98 2c       	mov	r9, r8
 d2c:	21 2c       	mov	r2, r1
 d2e:	a4 fe       	sbrs	r10, 4
 d30:	0f c0       	rjmp	.+30     	; 0xd50 <vfprintf+0x36c>
 d32:	b6 01       	movw	r22, r12
 d34:	80 e3       	ldi	r24, 0x30	; 48
 d36:	90 e0       	ldi	r25, 0x00	; 0
 d38:	68 d0       	rcall	.+208    	; 0xe0a <fputc>
 d3a:	a2 fe       	sbrs	r10, 2
 d3c:	16 c0       	rjmp	.+44     	; 0xd6a <vfprintf+0x386>
 d3e:	a1 fc       	sbrc	r10, 1
 d40:	03 c0       	rjmp	.+6      	; 0xd48 <vfprintf+0x364>
 d42:	88 e7       	ldi	r24, 0x78	; 120
 d44:	90 e0       	ldi	r25, 0x00	; 0
 d46:	02 c0       	rjmp	.+4      	; 0xd4c <vfprintf+0x368>
 d48:	88 e5       	ldi	r24, 0x58	; 88
 d4a:	90 e0       	ldi	r25, 0x00	; 0
 d4c:	b6 01       	movw	r22, r12
 d4e:	0c c0       	rjmp	.+24     	; 0xd68 <vfprintf+0x384>
 d50:	8a 2d       	mov	r24, r10
 d52:	86 78       	andi	r24, 0x86	; 134
 d54:	51 f0       	breq	.+20     	; 0xd6a <vfprintf+0x386>
 d56:	a1 fe       	sbrs	r10, 1
 d58:	02 c0       	rjmp	.+4      	; 0xd5e <vfprintf+0x37a>
 d5a:	8b e2       	ldi	r24, 0x2B	; 43
 d5c:	01 c0       	rjmp	.+2      	; 0xd60 <vfprintf+0x37c>
 d5e:	80 e2       	ldi	r24, 0x20	; 32
 d60:	a7 fc       	sbrc	r10, 7
 d62:	8d e2       	ldi	r24, 0x2D	; 45
 d64:	b6 01       	movw	r22, r12
 d66:	90 e0       	ldi	r25, 0x00	; 0
 d68:	50 d0       	rcall	.+160    	; 0xe0a <fputc>
 d6a:	89 14       	cp	r8, r9
 d6c:	30 f4       	brcc	.+12     	; 0xd7a <vfprintf+0x396>
 d6e:	b6 01       	movw	r22, r12
 d70:	80 e3       	ldi	r24, 0x30	; 48
 d72:	90 e0       	ldi	r25, 0x00	; 0
 d74:	4a d0       	rcall	.+148    	; 0xe0a <fputc>
 d76:	9a 94       	dec	r9
 d78:	f8 cf       	rjmp	.-16     	; 0xd6a <vfprintf+0x386>
 d7a:	8a 94       	dec	r8
 d7c:	f3 01       	movw	r30, r6
 d7e:	e8 0d       	add	r30, r8
 d80:	f1 1d       	adc	r31, r1
 d82:	80 81       	ld	r24, Z
 d84:	b6 01       	movw	r22, r12
 d86:	90 e0       	ldi	r25, 0x00	; 0
 d88:	40 d0       	rcall	.+128    	; 0xe0a <fputc>
 d8a:	81 10       	cpse	r8, r1
 d8c:	f6 cf       	rjmp	.-20     	; 0xd7a <vfprintf+0x396>
 d8e:	22 20       	and	r2, r2
 d90:	09 f4       	brne	.+2      	; 0xd94 <vfprintf+0x3b0>
 d92:	4e ce       	rjmp	.-868    	; 0xa30 <vfprintf+0x4c>
 d94:	b6 01       	movw	r22, r12
 d96:	80 e2       	ldi	r24, 0x20	; 32
 d98:	90 e0       	ldi	r25, 0x00	; 0
 d9a:	37 d0       	rcall	.+110    	; 0xe0a <fputc>
 d9c:	2a 94       	dec	r2
 d9e:	f7 cf       	rjmp	.-18     	; 0xd8e <vfprintf+0x3aa>
 da0:	f6 01       	movw	r30, r12
 da2:	86 81       	ldd	r24, Z+6	; 0x06
 da4:	97 81       	ldd	r25, Z+7	; 0x07
 da6:	02 c0       	rjmp	.+4      	; 0xdac <vfprintf+0x3c8>
 da8:	8f ef       	ldi	r24, 0xFF	; 255
 daa:	9f ef       	ldi	r25, 0xFF	; 255
 dac:	2b 96       	adiw	r28, 0x0b	; 11
 dae:	0f b6       	in	r0, 0x3f	; 63
 db0:	f8 94       	cli
 db2:	de bf       	out	0x3e, r29	; 62
 db4:	0f be       	out	0x3f, r0	; 63
 db6:	cd bf       	out	0x3d, r28	; 61
 db8:	df 91       	pop	r29
 dba:	cf 91       	pop	r28
 dbc:	1f 91       	pop	r17
 dbe:	0f 91       	pop	r16
 dc0:	ff 90       	pop	r15
 dc2:	ef 90       	pop	r14
 dc4:	df 90       	pop	r13
 dc6:	cf 90       	pop	r12
 dc8:	bf 90       	pop	r11
 dca:	af 90       	pop	r10
 dcc:	9f 90       	pop	r9
 dce:	8f 90       	pop	r8
 dd0:	7f 90       	pop	r7
 dd2:	6f 90       	pop	r6
 dd4:	5f 90       	pop	r5
 dd6:	4f 90       	pop	r4
 dd8:	3f 90       	pop	r3
 dda:	2f 90       	pop	r2
 ddc:	08 95       	ret

00000dde <strnlen_P>:
 dde:	fc 01       	movw	r30, r24
 de0:	05 90       	lpm	r0, Z+
 de2:	61 50       	subi	r22, 0x01	; 1
 de4:	70 40       	sbci	r23, 0x00	; 0
 de6:	01 10       	cpse	r0, r1
 de8:	d8 f7       	brcc	.-10     	; 0xde0 <strnlen_P+0x2>
 dea:	80 95       	com	r24
 dec:	90 95       	com	r25
 dee:	8e 0f       	add	r24, r30
 df0:	9f 1f       	adc	r25, r31
 df2:	08 95       	ret

00000df4 <strnlen>:
 df4:	fc 01       	movw	r30, r24
 df6:	61 50       	subi	r22, 0x01	; 1
 df8:	70 40       	sbci	r23, 0x00	; 0
 dfa:	01 90       	ld	r0, Z+
 dfc:	01 10       	cpse	r0, r1
 dfe:	d8 f7       	brcc	.-10     	; 0xdf6 <strnlen+0x2>
 e00:	80 95       	com	r24
 e02:	90 95       	com	r25
 e04:	8e 0f       	add	r24, r30
 e06:	9f 1f       	adc	r25, r31
 e08:	08 95       	ret

00000e0a <fputc>:
 e0a:	0f 93       	push	r16
 e0c:	1f 93       	push	r17
 e0e:	cf 93       	push	r28
 e10:	df 93       	push	r29
 e12:	fb 01       	movw	r30, r22
 e14:	23 81       	ldd	r18, Z+3	; 0x03
 e16:	21 fd       	sbrc	r18, 1
 e18:	03 c0       	rjmp	.+6      	; 0xe20 <fputc+0x16>
 e1a:	8f ef       	ldi	r24, 0xFF	; 255
 e1c:	9f ef       	ldi	r25, 0xFF	; 255
 e1e:	2c c0       	rjmp	.+88     	; 0xe78 <fputc+0x6e>
 e20:	22 ff       	sbrs	r18, 2
 e22:	16 c0       	rjmp	.+44     	; 0xe50 <fputc+0x46>
 e24:	46 81       	ldd	r20, Z+6	; 0x06
 e26:	57 81       	ldd	r21, Z+7	; 0x07
 e28:	24 81       	ldd	r18, Z+4	; 0x04
 e2a:	35 81       	ldd	r19, Z+5	; 0x05
 e2c:	42 17       	cp	r20, r18
 e2e:	53 07       	cpc	r21, r19
 e30:	44 f4       	brge	.+16     	; 0xe42 <fputc+0x38>
 e32:	a0 81       	ld	r26, Z
 e34:	b1 81       	ldd	r27, Z+1	; 0x01
 e36:	9d 01       	movw	r18, r26
 e38:	2f 5f       	subi	r18, 0xFF	; 255
 e3a:	3f 4f       	sbci	r19, 0xFF	; 255
 e3c:	31 83       	std	Z+1, r19	; 0x01
 e3e:	20 83       	st	Z, r18
 e40:	8c 93       	st	X, r24
 e42:	26 81       	ldd	r18, Z+6	; 0x06
 e44:	37 81       	ldd	r19, Z+7	; 0x07
 e46:	2f 5f       	subi	r18, 0xFF	; 255
 e48:	3f 4f       	sbci	r19, 0xFF	; 255
 e4a:	37 83       	std	Z+7, r19	; 0x07
 e4c:	26 83       	std	Z+6, r18	; 0x06
 e4e:	14 c0       	rjmp	.+40     	; 0xe78 <fputc+0x6e>
 e50:	8b 01       	movw	r16, r22
 e52:	ec 01       	movw	r28, r24
 e54:	fb 01       	movw	r30, r22
 e56:	00 84       	ldd	r0, Z+8	; 0x08
 e58:	f1 85       	ldd	r31, Z+9	; 0x09
 e5a:	e0 2d       	mov	r30, r0
 e5c:	19 95       	eicall
 e5e:	89 2b       	or	r24, r25
 e60:	e1 f6       	brne	.-72     	; 0xe1a <fputc+0x10>
 e62:	d8 01       	movw	r26, r16
 e64:	16 96       	adiw	r26, 0x06	; 6
 e66:	8d 91       	ld	r24, X+
 e68:	9c 91       	ld	r25, X
 e6a:	17 97       	sbiw	r26, 0x07	; 7
 e6c:	01 96       	adiw	r24, 0x01	; 1
 e6e:	17 96       	adiw	r26, 0x07	; 7
 e70:	9c 93       	st	X, r25
 e72:	8e 93       	st	-X, r24
 e74:	16 97       	sbiw	r26, 0x06	; 6
 e76:	ce 01       	movw	r24, r28
 e78:	df 91       	pop	r29
 e7a:	cf 91       	pop	r28
 e7c:	1f 91       	pop	r17
 e7e:	0f 91       	pop	r16
 e80:	08 95       	ret

00000e82 <__ultoa_invert>:
 e82:	fa 01       	movw	r30, r20
 e84:	aa 27       	eor	r26, r26
 e86:	28 30       	cpi	r18, 0x08	; 8
 e88:	51 f1       	breq	.+84     	; 0xede <__ultoa_invert+0x5c>
 e8a:	20 31       	cpi	r18, 0x10	; 16
 e8c:	81 f1       	breq	.+96     	; 0xeee <__ultoa_invert+0x6c>
 e8e:	e8 94       	clt
 e90:	6f 93       	push	r22
 e92:	6e 7f       	andi	r22, 0xFE	; 254
 e94:	6e 5f       	subi	r22, 0xFE	; 254
 e96:	7f 4f       	sbci	r23, 0xFF	; 255
 e98:	8f 4f       	sbci	r24, 0xFF	; 255
 e9a:	9f 4f       	sbci	r25, 0xFF	; 255
 e9c:	af 4f       	sbci	r26, 0xFF	; 255
 e9e:	b1 e0       	ldi	r27, 0x01	; 1
 ea0:	3e d0       	rcall	.+124    	; 0xf1e <__ultoa_invert+0x9c>
 ea2:	b4 e0       	ldi	r27, 0x04	; 4
 ea4:	3c d0       	rcall	.+120    	; 0xf1e <__ultoa_invert+0x9c>
 ea6:	67 0f       	add	r22, r23
 ea8:	78 1f       	adc	r23, r24
 eaa:	89 1f       	adc	r24, r25
 eac:	9a 1f       	adc	r25, r26
 eae:	a1 1d       	adc	r26, r1
 eb0:	68 0f       	add	r22, r24
 eb2:	79 1f       	adc	r23, r25
 eb4:	8a 1f       	adc	r24, r26
 eb6:	91 1d       	adc	r25, r1
 eb8:	a1 1d       	adc	r26, r1
 eba:	6a 0f       	add	r22, r26
 ebc:	71 1d       	adc	r23, r1
 ebe:	81 1d       	adc	r24, r1
 ec0:	91 1d       	adc	r25, r1
 ec2:	a1 1d       	adc	r26, r1
 ec4:	20 d0       	rcall	.+64     	; 0xf06 <__ultoa_invert+0x84>
 ec6:	09 f4       	brne	.+2      	; 0xeca <__ultoa_invert+0x48>
 ec8:	68 94       	set
 eca:	3f 91       	pop	r19
 ecc:	2a e0       	ldi	r18, 0x0A	; 10
 ece:	26 9f       	mul	r18, r22
 ed0:	11 24       	eor	r1, r1
 ed2:	30 19       	sub	r19, r0
 ed4:	30 5d       	subi	r19, 0xD0	; 208
 ed6:	31 93       	st	Z+, r19
 ed8:	de f6       	brtc	.-74     	; 0xe90 <__ultoa_invert+0xe>
 eda:	cf 01       	movw	r24, r30
 edc:	08 95       	ret
 ede:	46 2f       	mov	r20, r22
 ee0:	47 70       	andi	r20, 0x07	; 7
 ee2:	40 5d       	subi	r20, 0xD0	; 208
 ee4:	41 93       	st	Z+, r20
 ee6:	b3 e0       	ldi	r27, 0x03	; 3
 ee8:	0f d0       	rcall	.+30     	; 0xf08 <__ultoa_invert+0x86>
 eea:	c9 f7       	brne	.-14     	; 0xede <__ultoa_invert+0x5c>
 eec:	f6 cf       	rjmp	.-20     	; 0xeda <__ultoa_invert+0x58>
 eee:	46 2f       	mov	r20, r22
 ef0:	4f 70       	andi	r20, 0x0F	; 15
 ef2:	40 5d       	subi	r20, 0xD0	; 208
 ef4:	4a 33       	cpi	r20, 0x3A	; 58
 ef6:	18 f0       	brcs	.+6      	; 0xefe <__ultoa_invert+0x7c>
 ef8:	49 5d       	subi	r20, 0xD9	; 217
 efa:	31 fd       	sbrc	r19, 1
 efc:	40 52       	subi	r20, 0x20	; 32
 efe:	41 93       	st	Z+, r20
 f00:	02 d0       	rcall	.+4      	; 0xf06 <__ultoa_invert+0x84>
 f02:	a9 f7       	brne	.-22     	; 0xeee <__ultoa_invert+0x6c>
 f04:	ea cf       	rjmp	.-44     	; 0xeda <__ultoa_invert+0x58>
 f06:	b4 e0       	ldi	r27, 0x04	; 4
 f08:	a6 95       	lsr	r26
 f0a:	97 95       	ror	r25
 f0c:	87 95       	ror	r24
 f0e:	77 95       	ror	r23
 f10:	67 95       	ror	r22
 f12:	ba 95       	dec	r27
 f14:	c9 f7       	brne	.-14     	; 0xf08 <__ultoa_invert+0x86>
 f16:	00 97       	sbiw	r24, 0x00	; 0
 f18:	61 05       	cpc	r22, r1
 f1a:	71 05       	cpc	r23, r1
 f1c:	08 95       	ret
 f1e:	9b 01       	movw	r18, r22
 f20:	ac 01       	movw	r20, r24
 f22:	0a 2e       	mov	r0, r26
 f24:	06 94       	lsr	r0
 f26:	57 95       	ror	r21
 f28:	47 95       	ror	r20
 f2a:	37 95       	ror	r19
 f2c:	27 95       	ror	r18
 f2e:	ba 95       	dec	r27
 f30:	c9 f7       	brne	.-14     	; 0xf24 <__ultoa_invert+0xa2>
 f32:	62 0f       	add	r22, r18
 f34:	73 1f       	adc	r23, r19
 f36:	84 1f       	adc	r24, r20
 f38:	95 1f       	adc	r25, r21
 f3a:	a0 1d       	adc	r26, r0
 f3c:	08 95       	ret

00000f3e <_exit>:
 f3e:	f8 94       	cli

00000f40 <__stop_program>:
 f40:	ff cf       	rjmp	.-2      	; 0xf40 <__stop_program>
